;--------------------------------------------------------
; File Created by SDCC : free open source ANSI-C Compiler
; Version 3.6.0 #9615 (MINGW64)
;--------------------------------------------------------
	.module lab_5
	.optsdcc -mmcs51 --model-small
	
;--------------------------------------------------------
; Public variables in this module
;--------------------------------------------------------
	.globl _main
	.globl _read_keypad
	.globl _strlen
	.globl _putchar
	.globl _vsprintf
	.globl _printf
	.globl _abs
	.globl _getchar_nw
	.globl _Sys_Init
	.globl _UART0_Init
	.globl _SYSCLK_Init
	.globl _BILED1
	.globl _BILED0
	.globl _run
	.globl _BUS_SCL
	.globl _BUS_TOE
	.globl _BUS_FTE
	.globl _BUS_AA
	.globl _BUS_INT
	.globl _BUS_STOP
	.globl _BUS_START
	.globl _BUS_EN
	.globl _BUS_BUSY
	.globl _SPIF
	.globl _WCOL
	.globl _MODF
	.globl _RXOVRN
	.globl _TXBSY
	.globl _SLVSEL
	.globl _MSTEN
	.globl _SPIEN
	.globl _AD0EN
	.globl _ADCEN
	.globl _AD0TM
	.globl _ADCTM
	.globl _AD0INT
	.globl _ADCINT
	.globl _AD0BUSY
	.globl _ADBUSY
	.globl _AD0CM1
	.globl _ADSTM1
	.globl _AD0CM0
	.globl _ADSTM0
	.globl _AD0WINT
	.globl _ADWINT
	.globl _AD0LJST
	.globl _ADLJST
	.globl _CF
	.globl _CR
	.globl _CCF4
	.globl _CCF3
	.globl _CCF2
	.globl _CCF1
	.globl _CCF0
	.globl _CY
	.globl _AC
	.globl _F0
	.globl _RS1
	.globl _RS0
	.globl _OV
	.globl _F1
	.globl _P
	.globl _TF2
	.globl _EXF2
	.globl _RCLK
	.globl _TCLK
	.globl _EXEN2
	.globl _TR2
	.globl _CT2
	.globl _CPRL2
	.globl _BUSY
	.globl _ENSMB
	.globl _STA
	.globl _STO
	.globl _SI
	.globl _AA
	.globl _SMBFTE
	.globl _SMBTOE
	.globl _PT2
	.globl _PS
	.globl _PS0
	.globl _PT1
	.globl _PX1
	.globl _PT0
	.globl _PX0
	.globl _P3_7
	.globl _P3_6
	.globl _P3_5
	.globl _P3_4
	.globl _P3_3
	.globl _P3_2
	.globl _P3_1
	.globl _P3_0
	.globl _EA
	.globl _ET2
	.globl _ES
	.globl _ES0
	.globl _ET1
	.globl _EX1
	.globl _ET0
	.globl _EX0
	.globl _P2_7
	.globl _P2_6
	.globl _P2_5
	.globl _P2_4
	.globl _P2_3
	.globl _P2_2
	.globl _P2_1
	.globl _P2_0
	.globl _S0MODE
	.globl _SM00
	.globl _SM0
	.globl _SM10
	.globl _SM1
	.globl _MCE0
	.globl _SM20
	.globl _SM2
	.globl _REN0
	.globl _REN
	.globl _TB80
	.globl _TB8
	.globl _RB80
	.globl _RB8
	.globl _TI0
	.globl _TI
	.globl _RI0
	.globl _RI
	.globl _P1_7
	.globl _P1_6
	.globl _P1_5
	.globl _P1_4
	.globl _P1_3
	.globl _P1_2
	.globl _P1_1
	.globl _P1_0
	.globl _TF1
	.globl _TR1
	.globl _TF0
	.globl _TR0
	.globl _IE1
	.globl _IT1
	.globl _IE0
	.globl _IT0
	.globl _P0_7
	.globl _P0_6
	.globl _P0_5
	.globl _P0_4
	.globl _P0_3
	.globl _P0_2
	.globl _P0_1
	.globl _P0_0
	.globl _PCA0CP4
	.globl _PCA0CP3
	.globl _PCA0CP2
	.globl _PCA0CP1
	.globl _PCA0CP0
	.globl _PCA0
	.globl _DAC1
	.globl _DAC0
	.globl _ADC0LT
	.globl _ADC0GT
	.globl _ADC0
	.globl _RCAP4
	.globl _TMR4
	.globl _TMR3RL
	.globl _TMR3
	.globl _RCAP2
	.globl _TMR2
	.globl _TMR1
	.globl _TMR0
	.globl _WDTCN
	.globl _PCA0CPH4
	.globl _PCA0CPH3
	.globl _PCA0CPH2
	.globl _PCA0CPH1
	.globl _PCA0CPH0
	.globl _PCA0H
	.globl _SPI0CN
	.globl _EIP2
	.globl _EIP1
	.globl _TH4
	.globl _TL4
	.globl _SADDR1
	.globl _SBUF1
	.globl _SCON1
	.globl _B
	.globl _RSTSRC
	.globl _PCA0CPL4
	.globl _PCA0CPL3
	.globl _PCA0CPL2
	.globl _PCA0CPL1
	.globl _PCA0CPL0
	.globl _PCA0L
	.globl _ADC0CN
	.globl _EIE2
	.globl _EIE1
	.globl _RCAP4H
	.globl _RCAP4L
	.globl _XBR2
	.globl _XBR1
	.globl _XBR0
	.globl _ACC
	.globl _PCA0CPM4
	.globl _PCA0CPM3
	.globl _PCA0CPM2
	.globl _PCA0CPM1
	.globl _PCA0CPM0
	.globl _PCA0MD
	.globl _PCA0CN
	.globl _DAC1CN
	.globl _DAC1H
	.globl _DAC1L
	.globl _DAC0CN
	.globl _DAC0H
	.globl _DAC0L
	.globl _REF0CN
	.globl _PSW
	.globl _SMB0CR
	.globl _TH2
	.globl _TL2
	.globl _RCAP2H
	.globl _RCAP2L
	.globl _T4CON
	.globl _T2CON
	.globl _ADC0LTH
	.globl _ADC0LTL
	.globl _ADC0GTH
	.globl _ADC0GTL
	.globl _SMB0ADR
	.globl _SMB0DAT
	.globl _SMB0STA
	.globl _SMB0CN
	.globl _ADC0H
	.globl _ADC0L
	.globl _P1MDIN
	.globl _ADC0CF
	.globl _AMX0SL
	.globl _AMX0CF
	.globl _SADEN0
	.globl _IP
	.globl _FLACL
	.globl _FLSCL
	.globl _P74OUT
	.globl _OSCICN
	.globl _OSCXCN
	.globl _P3
	.globl __XPAGE
	.globl _EMI0CN
	.globl _SADEN1
	.globl _P3IF
	.globl _AMX1SL
	.globl _ADC1CF
	.globl _ADC1CN
	.globl _SADDR0
	.globl _IE
	.globl _P3MDOUT
	.globl _PRT3CF
	.globl _P2MDOUT
	.globl _PRT2CF
	.globl _P1MDOUT
	.globl _PRT1CF
	.globl _P0MDOUT
	.globl _PRT0CF
	.globl _EMI0CF
	.globl _EMI0TC
	.globl _P2
	.globl _CPT1CN
	.globl _CPT0CN
	.globl _SPI0CKR
	.globl _ADC1
	.globl _SPI0DAT
	.globl _SPI0CFG
	.globl _SBUF0
	.globl _SBUF
	.globl _SCON0
	.globl _SCON
	.globl _P7
	.globl _TMR3H
	.globl _TMR3L
	.globl _TMR3RLH
	.globl _TMR3RLL
	.globl _TMR3CN
	.globl _P1
	.globl _PSCTL
	.globl _CKCON
	.globl _TH1
	.globl _TH0
	.globl _TL1
	.globl _TL0
	.globl _TMOD
	.globl _TCON
	.globl _PCON
	.globl _P6
	.globl _P5
	.globl _P4
	.globl _DPH
	.globl _DPL
	.globl _SP
	.globl _P0
	.globl _read_AD_input_PARM_2
	.globl _avg_gy
	.globl _avg_gx
	.globl _Constant
	.globl _direction
	.globl _nCounts
	.globl _levelflag
	.globl _kdy
	.globl _kdx
	.globl _ks
	.globl _y0
	.globl _x0
	.globl _gy
	.globl _gx
	.globl _Data
	.globl _lcd_count
	.globl _a_count
	.globl _range
	.globl _new_lcd
	.globl _new_accel
	.globl _SERVO_PW
	.globl _SERVO_LEFT
	.globl _SERVO_RIGHT
	.globl _SERVO_CENTER
	.globl _MOTOR_PW
	.globl _MOTOR_MIN
	.globl _MOTOR_MAX
	.globl _MOTOR_STOP
	.globl _i2c_read_data_PARM_4
	.globl _i2c_read_data_PARM_3
	.globl _i2c_read_data_PARM_2
	.globl _i2c_write_data_PARM_4
	.globl _i2c_write_data_PARM_3
	.globl _i2c_write_data_PARM_2
	.globl _aligned_alloc_PARM_2
	.globl _Data2
	.globl _lcd_print
	.globl _lcd_clear
	.globl _kpd_input
	.globl _delay_time
	.globl _i2c_start
	.globl _i2c_write
	.globl _i2c_write_and_stop
	.globl _i2c_read
	.globl _i2c_read_and_stop
	.globl _i2c_write_data
	.globl _i2c_read_data
	.globl _Accel_Init
	.globl _Accel_Init_C
	.globl _PCA_ISR
	.globl _pause
	.globl _wait
	.globl _read_AD_input
	.globl _PCA_Init
	.globl _ADC_Init
	.globl _SMB_Init
	.globl _Port_Init
	.globl _XBR0_Init
	.globl _calibration
	.globl _read_accels
	.globl _set_servo_PWM
	.globl _set_drive_PWM
	.globl _set_gains
;--------------------------------------------------------
; special function registers
;--------------------------------------------------------
	.area RSEG    (ABS,DATA)
	.org 0x0000
G$P0$0$0 == 0x0080
_P0	=	0x0080
G$SP$0$0 == 0x0081
_SP	=	0x0081
G$DPL$0$0 == 0x0082
_DPL	=	0x0082
G$DPH$0$0 == 0x0083
_DPH	=	0x0083
G$P4$0$0 == 0x0084
_P4	=	0x0084
G$P5$0$0 == 0x0085
_P5	=	0x0085
G$P6$0$0 == 0x0086
_P6	=	0x0086
G$PCON$0$0 == 0x0087
_PCON	=	0x0087
G$TCON$0$0 == 0x0088
_TCON	=	0x0088
G$TMOD$0$0 == 0x0089
_TMOD	=	0x0089
G$TL0$0$0 == 0x008a
_TL0	=	0x008a
G$TL1$0$0 == 0x008b
_TL1	=	0x008b
G$TH0$0$0 == 0x008c
_TH0	=	0x008c
G$TH1$0$0 == 0x008d
_TH1	=	0x008d
G$CKCON$0$0 == 0x008e
_CKCON	=	0x008e
G$PSCTL$0$0 == 0x008f
_PSCTL	=	0x008f
G$P1$0$0 == 0x0090
_P1	=	0x0090
G$TMR3CN$0$0 == 0x0091
_TMR3CN	=	0x0091
G$TMR3RLL$0$0 == 0x0092
_TMR3RLL	=	0x0092
G$TMR3RLH$0$0 == 0x0093
_TMR3RLH	=	0x0093
G$TMR3L$0$0 == 0x0094
_TMR3L	=	0x0094
G$TMR3H$0$0 == 0x0095
_TMR3H	=	0x0095
G$P7$0$0 == 0x0096
_P7	=	0x0096
G$SCON$0$0 == 0x0098
_SCON	=	0x0098
G$SCON0$0$0 == 0x0098
_SCON0	=	0x0098
G$SBUF$0$0 == 0x0099
_SBUF	=	0x0099
G$SBUF0$0$0 == 0x0099
_SBUF0	=	0x0099
G$SPI0CFG$0$0 == 0x009a
_SPI0CFG	=	0x009a
G$SPI0DAT$0$0 == 0x009b
_SPI0DAT	=	0x009b
G$ADC1$0$0 == 0x009c
_ADC1	=	0x009c
G$SPI0CKR$0$0 == 0x009d
_SPI0CKR	=	0x009d
G$CPT0CN$0$0 == 0x009e
_CPT0CN	=	0x009e
G$CPT1CN$0$0 == 0x009f
_CPT1CN	=	0x009f
G$P2$0$0 == 0x00a0
_P2	=	0x00a0
G$EMI0TC$0$0 == 0x00a1
_EMI0TC	=	0x00a1
G$EMI0CF$0$0 == 0x00a3
_EMI0CF	=	0x00a3
G$PRT0CF$0$0 == 0x00a4
_PRT0CF	=	0x00a4
G$P0MDOUT$0$0 == 0x00a4
_P0MDOUT	=	0x00a4
G$PRT1CF$0$0 == 0x00a5
_PRT1CF	=	0x00a5
G$P1MDOUT$0$0 == 0x00a5
_P1MDOUT	=	0x00a5
G$PRT2CF$0$0 == 0x00a6
_PRT2CF	=	0x00a6
G$P2MDOUT$0$0 == 0x00a6
_P2MDOUT	=	0x00a6
G$PRT3CF$0$0 == 0x00a7
_PRT3CF	=	0x00a7
G$P3MDOUT$0$0 == 0x00a7
_P3MDOUT	=	0x00a7
G$IE$0$0 == 0x00a8
_IE	=	0x00a8
G$SADDR0$0$0 == 0x00a9
_SADDR0	=	0x00a9
G$ADC1CN$0$0 == 0x00aa
_ADC1CN	=	0x00aa
G$ADC1CF$0$0 == 0x00ab
_ADC1CF	=	0x00ab
G$AMX1SL$0$0 == 0x00ac
_AMX1SL	=	0x00ac
G$P3IF$0$0 == 0x00ad
_P3IF	=	0x00ad
G$SADEN1$0$0 == 0x00ae
_SADEN1	=	0x00ae
G$EMI0CN$0$0 == 0x00af
_EMI0CN	=	0x00af
G$_XPAGE$0$0 == 0x00af
__XPAGE	=	0x00af
G$P3$0$0 == 0x00b0
_P3	=	0x00b0
G$OSCXCN$0$0 == 0x00b1
_OSCXCN	=	0x00b1
G$OSCICN$0$0 == 0x00b2
_OSCICN	=	0x00b2
G$P74OUT$0$0 == 0x00b5
_P74OUT	=	0x00b5
G$FLSCL$0$0 == 0x00b6
_FLSCL	=	0x00b6
G$FLACL$0$0 == 0x00b7
_FLACL	=	0x00b7
G$IP$0$0 == 0x00b8
_IP	=	0x00b8
G$SADEN0$0$0 == 0x00b9
_SADEN0	=	0x00b9
G$AMX0CF$0$0 == 0x00ba
_AMX0CF	=	0x00ba
G$AMX0SL$0$0 == 0x00bb
_AMX0SL	=	0x00bb
G$ADC0CF$0$0 == 0x00bc
_ADC0CF	=	0x00bc
G$P1MDIN$0$0 == 0x00bd
_P1MDIN	=	0x00bd
G$ADC0L$0$0 == 0x00be
_ADC0L	=	0x00be
G$ADC0H$0$0 == 0x00bf
_ADC0H	=	0x00bf
G$SMB0CN$0$0 == 0x00c0
_SMB0CN	=	0x00c0
G$SMB0STA$0$0 == 0x00c1
_SMB0STA	=	0x00c1
G$SMB0DAT$0$0 == 0x00c2
_SMB0DAT	=	0x00c2
G$SMB0ADR$0$0 == 0x00c3
_SMB0ADR	=	0x00c3
G$ADC0GTL$0$0 == 0x00c4
_ADC0GTL	=	0x00c4
G$ADC0GTH$0$0 == 0x00c5
_ADC0GTH	=	0x00c5
G$ADC0LTL$0$0 == 0x00c6
_ADC0LTL	=	0x00c6
G$ADC0LTH$0$0 == 0x00c7
_ADC0LTH	=	0x00c7
G$T2CON$0$0 == 0x00c8
_T2CON	=	0x00c8
G$T4CON$0$0 == 0x00c9
_T4CON	=	0x00c9
G$RCAP2L$0$0 == 0x00ca
_RCAP2L	=	0x00ca
G$RCAP2H$0$0 == 0x00cb
_RCAP2H	=	0x00cb
G$TL2$0$0 == 0x00cc
_TL2	=	0x00cc
G$TH2$0$0 == 0x00cd
_TH2	=	0x00cd
G$SMB0CR$0$0 == 0x00cf
_SMB0CR	=	0x00cf
G$PSW$0$0 == 0x00d0
_PSW	=	0x00d0
G$REF0CN$0$0 == 0x00d1
_REF0CN	=	0x00d1
G$DAC0L$0$0 == 0x00d2
_DAC0L	=	0x00d2
G$DAC0H$0$0 == 0x00d3
_DAC0H	=	0x00d3
G$DAC0CN$0$0 == 0x00d4
_DAC0CN	=	0x00d4
G$DAC1L$0$0 == 0x00d5
_DAC1L	=	0x00d5
G$DAC1H$0$0 == 0x00d6
_DAC1H	=	0x00d6
G$DAC1CN$0$0 == 0x00d7
_DAC1CN	=	0x00d7
G$PCA0CN$0$0 == 0x00d8
_PCA0CN	=	0x00d8
G$PCA0MD$0$0 == 0x00d9
_PCA0MD	=	0x00d9
G$PCA0CPM0$0$0 == 0x00da
_PCA0CPM0	=	0x00da
G$PCA0CPM1$0$0 == 0x00db
_PCA0CPM1	=	0x00db
G$PCA0CPM2$0$0 == 0x00dc
_PCA0CPM2	=	0x00dc
G$PCA0CPM3$0$0 == 0x00dd
_PCA0CPM3	=	0x00dd
G$PCA0CPM4$0$0 == 0x00de
_PCA0CPM4	=	0x00de
G$ACC$0$0 == 0x00e0
_ACC	=	0x00e0
G$XBR0$0$0 == 0x00e1
_XBR0	=	0x00e1
G$XBR1$0$0 == 0x00e2
_XBR1	=	0x00e2
G$XBR2$0$0 == 0x00e3
_XBR2	=	0x00e3
G$RCAP4L$0$0 == 0x00e4
_RCAP4L	=	0x00e4
G$RCAP4H$0$0 == 0x00e5
_RCAP4H	=	0x00e5
G$EIE1$0$0 == 0x00e6
_EIE1	=	0x00e6
G$EIE2$0$0 == 0x00e7
_EIE2	=	0x00e7
G$ADC0CN$0$0 == 0x00e8
_ADC0CN	=	0x00e8
G$PCA0L$0$0 == 0x00e9
_PCA0L	=	0x00e9
G$PCA0CPL0$0$0 == 0x00ea
_PCA0CPL0	=	0x00ea
G$PCA0CPL1$0$0 == 0x00eb
_PCA0CPL1	=	0x00eb
G$PCA0CPL2$0$0 == 0x00ec
_PCA0CPL2	=	0x00ec
G$PCA0CPL3$0$0 == 0x00ed
_PCA0CPL3	=	0x00ed
G$PCA0CPL4$0$0 == 0x00ee
_PCA0CPL4	=	0x00ee
G$RSTSRC$0$0 == 0x00ef
_RSTSRC	=	0x00ef
G$B$0$0 == 0x00f0
_B	=	0x00f0
G$SCON1$0$0 == 0x00f1
_SCON1	=	0x00f1
G$SBUF1$0$0 == 0x00f2
_SBUF1	=	0x00f2
G$SADDR1$0$0 == 0x00f3
_SADDR1	=	0x00f3
G$TL4$0$0 == 0x00f4
_TL4	=	0x00f4
G$TH4$0$0 == 0x00f5
_TH4	=	0x00f5
G$EIP1$0$0 == 0x00f6
_EIP1	=	0x00f6
G$EIP2$0$0 == 0x00f7
_EIP2	=	0x00f7
G$SPI0CN$0$0 == 0x00f8
_SPI0CN	=	0x00f8
G$PCA0H$0$0 == 0x00f9
_PCA0H	=	0x00f9
G$PCA0CPH0$0$0 == 0x00fa
_PCA0CPH0	=	0x00fa
G$PCA0CPH1$0$0 == 0x00fb
_PCA0CPH1	=	0x00fb
G$PCA0CPH2$0$0 == 0x00fc
_PCA0CPH2	=	0x00fc
G$PCA0CPH3$0$0 == 0x00fd
_PCA0CPH3	=	0x00fd
G$PCA0CPH4$0$0 == 0x00fe
_PCA0CPH4	=	0x00fe
G$WDTCN$0$0 == 0x00ff
_WDTCN	=	0x00ff
G$TMR0$0$0 == 0x8c8a
_TMR0	=	0x8c8a
G$TMR1$0$0 == 0x8d8b
_TMR1	=	0x8d8b
G$TMR2$0$0 == 0xcdcc
_TMR2	=	0xcdcc
G$RCAP2$0$0 == 0xcbca
_RCAP2	=	0xcbca
G$TMR3$0$0 == 0x9594
_TMR3	=	0x9594
G$TMR3RL$0$0 == 0x9392
_TMR3RL	=	0x9392
G$TMR4$0$0 == 0xf5f4
_TMR4	=	0xf5f4
G$RCAP4$0$0 == 0xe5e4
_RCAP4	=	0xe5e4
G$ADC0$0$0 == 0xbfbe
_ADC0	=	0xbfbe
G$ADC0GT$0$0 == 0xc5c4
_ADC0GT	=	0xc5c4
G$ADC0LT$0$0 == 0xc7c6
_ADC0LT	=	0xc7c6
G$DAC0$0$0 == 0xd3d2
_DAC0	=	0xd3d2
G$DAC1$0$0 == 0xd6d5
_DAC1	=	0xd6d5
G$PCA0$0$0 == 0xf9e9
_PCA0	=	0xf9e9
G$PCA0CP0$0$0 == 0xfaea
_PCA0CP0	=	0xfaea
G$PCA0CP1$0$0 == 0xfbeb
_PCA0CP1	=	0xfbeb
G$PCA0CP2$0$0 == 0xfcec
_PCA0CP2	=	0xfcec
G$PCA0CP3$0$0 == 0xfded
_PCA0CP3	=	0xfded
G$PCA0CP4$0$0 == 0xfeee
_PCA0CP4	=	0xfeee
;--------------------------------------------------------
; special function bits
;--------------------------------------------------------
	.area RSEG    (ABS,DATA)
	.org 0x0000
G$P0_0$0$0 == 0x0080
_P0_0	=	0x0080
G$P0_1$0$0 == 0x0081
_P0_1	=	0x0081
G$P0_2$0$0 == 0x0082
_P0_2	=	0x0082
G$P0_3$0$0 == 0x0083
_P0_3	=	0x0083
G$P0_4$0$0 == 0x0084
_P0_4	=	0x0084
G$P0_5$0$0 == 0x0085
_P0_5	=	0x0085
G$P0_6$0$0 == 0x0086
_P0_6	=	0x0086
G$P0_7$0$0 == 0x0087
_P0_7	=	0x0087
G$IT0$0$0 == 0x0088
_IT0	=	0x0088
G$IE0$0$0 == 0x0089
_IE0	=	0x0089
G$IT1$0$0 == 0x008a
_IT1	=	0x008a
G$IE1$0$0 == 0x008b
_IE1	=	0x008b
G$TR0$0$0 == 0x008c
_TR0	=	0x008c
G$TF0$0$0 == 0x008d
_TF0	=	0x008d
G$TR1$0$0 == 0x008e
_TR1	=	0x008e
G$TF1$0$0 == 0x008f
_TF1	=	0x008f
G$P1_0$0$0 == 0x0090
_P1_0	=	0x0090
G$P1_1$0$0 == 0x0091
_P1_1	=	0x0091
G$P1_2$0$0 == 0x0092
_P1_2	=	0x0092
G$P1_3$0$0 == 0x0093
_P1_3	=	0x0093
G$P1_4$0$0 == 0x0094
_P1_4	=	0x0094
G$P1_5$0$0 == 0x0095
_P1_5	=	0x0095
G$P1_6$0$0 == 0x0096
_P1_6	=	0x0096
G$P1_7$0$0 == 0x0097
_P1_7	=	0x0097
G$RI$0$0 == 0x0098
_RI	=	0x0098
G$RI0$0$0 == 0x0098
_RI0	=	0x0098
G$TI$0$0 == 0x0099
_TI	=	0x0099
G$TI0$0$0 == 0x0099
_TI0	=	0x0099
G$RB8$0$0 == 0x009a
_RB8	=	0x009a
G$RB80$0$0 == 0x009a
_RB80	=	0x009a
G$TB8$0$0 == 0x009b
_TB8	=	0x009b
G$TB80$0$0 == 0x009b
_TB80	=	0x009b
G$REN$0$0 == 0x009c
_REN	=	0x009c
G$REN0$0$0 == 0x009c
_REN0	=	0x009c
G$SM2$0$0 == 0x009d
_SM2	=	0x009d
G$SM20$0$0 == 0x009d
_SM20	=	0x009d
G$MCE0$0$0 == 0x009d
_MCE0	=	0x009d
G$SM1$0$0 == 0x009e
_SM1	=	0x009e
G$SM10$0$0 == 0x009e
_SM10	=	0x009e
G$SM0$0$0 == 0x009f
_SM0	=	0x009f
G$SM00$0$0 == 0x009f
_SM00	=	0x009f
G$S0MODE$0$0 == 0x009f
_S0MODE	=	0x009f
G$P2_0$0$0 == 0x00a0
_P2_0	=	0x00a0
G$P2_1$0$0 == 0x00a1
_P2_1	=	0x00a1
G$P2_2$0$0 == 0x00a2
_P2_2	=	0x00a2
G$P2_3$0$0 == 0x00a3
_P2_3	=	0x00a3
G$P2_4$0$0 == 0x00a4
_P2_4	=	0x00a4
G$P2_5$0$0 == 0x00a5
_P2_5	=	0x00a5
G$P2_6$0$0 == 0x00a6
_P2_6	=	0x00a6
G$P2_7$0$0 == 0x00a7
_P2_7	=	0x00a7
G$EX0$0$0 == 0x00a8
_EX0	=	0x00a8
G$ET0$0$0 == 0x00a9
_ET0	=	0x00a9
G$EX1$0$0 == 0x00aa
_EX1	=	0x00aa
G$ET1$0$0 == 0x00ab
_ET1	=	0x00ab
G$ES0$0$0 == 0x00ac
_ES0	=	0x00ac
G$ES$0$0 == 0x00ac
_ES	=	0x00ac
G$ET2$0$0 == 0x00ad
_ET2	=	0x00ad
G$EA$0$0 == 0x00af
_EA	=	0x00af
G$P3_0$0$0 == 0x00b0
_P3_0	=	0x00b0
G$P3_1$0$0 == 0x00b1
_P3_1	=	0x00b1
G$P3_2$0$0 == 0x00b2
_P3_2	=	0x00b2
G$P3_3$0$0 == 0x00b3
_P3_3	=	0x00b3
G$P3_4$0$0 == 0x00b4
_P3_4	=	0x00b4
G$P3_5$0$0 == 0x00b5
_P3_5	=	0x00b5
G$P3_6$0$0 == 0x00b6
_P3_6	=	0x00b6
G$P3_7$0$0 == 0x00b7
_P3_7	=	0x00b7
G$PX0$0$0 == 0x00b8
_PX0	=	0x00b8
G$PT0$0$0 == 0x00b9
_PT0	=	0x00b9
G$PX1$0$0 == 0x00ba
_PX1	=	0x00ba
G$PT1$0$0 == 0x00bb
_PT1	=	0x00bb
G$PS0$0$0 == 0x00bc
_PS0	=	0x00bc
G$PS$0$0 == 0x00bc
_PS	=	0x00bc
G$PT2$0$0 == 0x00bd
_PT2	=	0x00bd
G$SMBTOE$0$0 == 0x00c0
_SMBTOE	=	0x00c0
G$SMBFTE$0$0 == 0x00c1
_SMBFTE	=	0x00c1
G$AA$0$0 == 0x00c2
_AA	=	0x00c2
G$SI$0$0 == 0x00c3
_SI	=	0x00c3
G$STO$0$0 == 0x00c4
_STO	=	0x00c4
G$STA$0$0 == 0x00c5
_STA	=	0x00c5
G$ENSMB$0$0 == 0x00c6
_ENSMB	=	0x00c6
G$BUSY$0$0 == 0x00c7
_BUSY	=	0x00c7
G$CPRL2$0$0 == 0x00c8
_CPRL2	=	0x00c8
G$CT2$0$0 == 0x00c9
_CT2	=	0x00c9
G$TR2$0$0 == 0x00ca
_TR2	=	0x00ca
G$EXEN2$0$0 == 0x00cb
_EXEN2	=	0x00cb
G$TCLK$0$0 == 0x00cc
_TCLK	=	0x00cc
G$RCLK$0$0 == 0x00cd
_RCLK	=	0x00cd
G$EXF2$0$0 == 0x00ce
_EXF2	=	0x00ce
G$TF2$0$0 == 0x00cf
_TF2	=	0x00cf
G$P$0$0 == 0x00d0
_P	=	0x00d0
G$F1$0$0 == 0x00d1
_F1	=	0x00d1
G$OV$0$0 == 0x00d2
_OV	=	0x00d2
G$RS0$0$0 == 0x00d3
_RS0	=	0x00d3
G$RS1$0$0 == 0x00d4
_RS1	=	0x00d4
G$F0$0$0 == 0x00d5
_F0	=	0x00d5
G$AC$0$0 == 0x00d6
_AC	=	0x00d6
G$CY$0$0 == 0x00d7
_CY	=	0x00d7
G$CCF0$0$0 == 0x00d8
_CCF0	=	0x00d8
G$CCF1$0$0 == 0x00d9
_CCF1	=	0x00d9
G$CCF2$0$0 == 0x00da
_CCF2	=	0x00da
G$CCF3$0$0 == 0x00db
_CCF3	=	0x00db
G$CCF4$0$0 == 0x00dc
_CCF4	=	0x00dc
G$CR$0$0 == 0x00de
_CR	=	0x00de
G$CF$0$0 == 0x00df
_CF	=	0x00df
G$ADLJST$0$0 == 0x00e8
_ADLJST	=	0x00e8
G$AD0LJST$0$0 == 0x00e8
_AD0LJST	=	0x00e8
G$ADWINT$0$0 == 0x00e9
_ADWINT	=	0x00e9
G$AD0WINT$0$0 == 0x00e9
_AD0WINT	=	0x00e9
G$ADSTM0$0$0 == 0x00ea
_ADSTM0	=	0x00ea
G$AD0CM0$0$0 == 0x00ea
_AD0CM0	=	0x00ea
G$ADSTM1$0$0 == 0x00eb
_ADSTM1	=	0x00eb
G$AD0CM1$0$0 == 0x00eb
_AD0CM1	=	0x00eb
G$ADBUSY$0$0 == 0x00ec
_ADBUSY	=	0x00ec
G$AD0BUSY$0$0 == 0x00ec
_AD0BUSY	=	0x00ec
G$ADCINT$0$0 == 0x00ed
_ADCINT	=	0x00ed
G$AD0INT$0$0 == 0x00ed
_AD0INT	=	0x00ed
G$ADCTM$0$0 == 0x00ee
_ADCTM	=	0x00ee
G$AD0TM$0$0 == 0x00ee
_AD0TM	=	0x00ee
G$ADCEN$0$0 == 0x00ef
_ADCEN	=	0x00ef
G$AD0EN$0$0 == 0x00ef
_AD0EN	=	0x00ef
G$SPIEN$0$0 == 0x00f8
_SPIEN	=	0x00f8
G$MSTEN$0$0 == 0x00f9
_MSTEN	=	0x00f9
G$SLVSEL$0$0 == 0x00fa
_SLVSEL	=	0x00fa
G$TXBSY$0$0 == 0x00fb
_TXBSY	=	0x00fb
G$RXOVRN$0$0 == 0x00fc
_RXOVRN	=	0x00fc
G$MODF$0$0 == 0x00fd
_MODF	=	0x00fd
G$WCOL$0$0 == 0x00fe
_WCOL	=	0x00fe
G$SPIF$0$0 == 0x00ff
_SPIF	=	0x00ff
G$BUS_BUSY$0$0 == 0x00c7
_BUS_BUSY	=	0x00c7
G$BUS_EN$0$0 == 0x00c6
_BUS_EN	=	0x00c6
G$BUS_START$0$0 == 0x00c5
_BUS_START	=	0x00c5
G$BUS_STOP$0$0 == 0x00c4
_BUS_STOP	=	0x00c4
G$BUS_INT$0$0 == 0x00c3
_BUS_INT	=	0x00c3
G$BUS_AA$0$0 == 0x00c2
_BUS_AA	=	0x00c2
G$BUS_FTE$0$0 == 0x00c1
_BUS_FTE	=	0x00c1
G$BUS_TOE$0$0 == 0x00c0
_BUS_TOE	=	0x00c0
G$BUS_SCL$0$0 == 0x0083
_BUS_SCL	=	0x0083
G$run$0$0 == 0x00b7
_run	=	0x00b7
G$BILED0$0$0 == 0x00a5
_BILED0	=	0x00a5
G$BILED1$0$0 == 0x00a3
_BILED1	=	0x00a3
;--------------------------------------------------------
; overlayable register banks
;--------------------------------------------------------
	.area REG_BANK_0	(REL,OVR,DATA)
	.ds 8
;--------------------------------------------------------
; internal ram data
;--------------------------------------------------------
	.area DSEG    (DATA)
G$Data2$0$0==.
_Data2::
	.ds 3
Llab_5.aligned_alloc$size$1$26==.
_aligned_alloc_PARM_2:
	.ds 2
Llab_5.lcd_clear$NumBytes$1$85==.
_lcd_clear_NumBytes_1_85:
	.ds 1
Llab_5.lcd_clear$Cmd$1$85==.
_lcd_clear_Cmd_1_85:
	.ds 2
Llab_5.read_keypad$Data$1$86==.
_read_keypad_Data_1_86:
	.ds 2
Llab_5.i2c_write_data$start_reg$1$105==.
_i2c_write_data_PARM_2:
	.ds 1
Llab_5.i2c_write_data$buffer$1$105==.
_i2c_write_data_PARM_3:
	.ds 3
Llab_5.i2c_write_data$num_bytes$1$105==.
_i2c_write_data_PARM_4:
	.ds 1
Llab_5.i2c_read_data$start_reg$1$107==.
_i2c_read_data_PARM_2:
	.ds 1
Llab_5.i2c_read_data$buffer$1$107==.
_i2c_read_data_PARM_3:
	.ds 3
Llab_5.i2c_read_data$num_bytes$1$107==.
_i2c_read_data_PARM_4:
	.ds 1
G$MOTOR_STOP$0$0==.
_MOTOR_STOP::
	.ds 2
G$MOTOR_MAX$0$0==.
_MOTOR_MAX::
	.ds 2
G$MOTOR_MIN$0$0==.
_MOTOR_MIN::
	.ds 2
G$MOTOR_PW$0$0==.
_MOTOR_PW::
	.ds 2
G$SERVO_CENTER$0$0==.
_SERVO_CENTER::
	.ds 2
G$SERVO_RIGHT$0$0==.
_SERVO_RIGHT::
	.ds 2
G$SERVO_LEFT$0$0==.
_SERVO_LEFT::
	.ds 2
G$SERVO_PW$0$0==.
_SERVO_PW::
	.ds 2
G$new_accel$0$0==.
_new_accel::
	.ds 1
G$new_lcd$0$0==.
_new_lcd::
	.ds 1
G$range$0$0==.
_range::
	.ds 2
G$a_count$0$0==.
_a_count::
	.ds 1
G$lcd_count$0$0==.
_lcd_count::
	.ds 1
G$Data$0$0==.
_Data::
	.ds 4
G$gx$0$0==.
_gx::
	.ds 2
G$gy$0$0==.
_gy::
	.ds 2
G$x0$0$0==.
_x0::
	.ds 2
G$y0$0$0==.
_y0::
	.ds 2
G$ks$0$0==.
_ks::
	.ds 1
G$kdx$0$0==.
_kdx::
	.ds 1
G$kdy$0$0==.
_kdy::
	.ds 1
G$levelflag$0$0==.
_levelflag::
	.ds 1
G$nCounts$0$0==.
_nCounts::
	.ds 2
G$direction$0$0==.
_direction::
	.ds 1
G$Constant$0$0==.
_Constant::
	.ds 2
G$avg_gx$0$0==.
_avg_gx::
	.ds 2
G$avg_gy$0$0==.
_avg_gy::
	.ds 2
Llab_5.read_AD_input$cast$1$166==.
_read_AD_input_PARM_2:
	.ds 1
;--------------------------------------------------------
; overlayable items in internal ram 
;--------------------------------------------------------
	.area	OSEG    (OVR,DATA)
	.area	OSEG    (OVR,DATA)
	.area	OSEG    (OVR,DATA)
	.area	OSEG    (OVR,DATA)
	.area	OSEG    (OVR,DATA)
	.area	OSEG    (OVR,DATA)
	.area	OSEG    (OVR,DATA)
;--------------------------------------------------------
; Stack segment in internal ram 
;--------------------------------------------------------
	.area	SSEG
__start__stack:
	.ds	1

;--------------------------------------------------------
; indirectly addressable internal ram data
;--------------------------------------------------------
	.area ISEG    (DATA)
;--------------------------------------------------------
; absolute internal ram data
;--------------------------------------------------------
	.area IABS    (ABS,DATA)
	.area IABS    (ABS,DATA)
;--------------------------------------------------------
; bit data
;--------------------------------------------------------
	.area BSEG    (BIT)
;--------------------------------------------------------
; paged external ram data
;--------------------------------------------------------
	.area PSEG    (PAG,XDATA)
;--------------------------------------------------------
; external ram data
;--------------------------------------------------------
	.area XSEG    (XDATA)
Llab_5.lcd_print$text$1$81==.
_lcd_print_text_1_81:
	.ds 80
;--------------------------------------------------------
; absolute external ram data
;--------------------------------------------------------
	.area XABS    (ABS,XDATA)
;--------------------------------------------------------
; external initialized ram data
;--------------------------------------------------------
	.area XISEG   (XDATA)
	.area HOME    (CODE)
	.area GSINIT0 (CODE)
	.area GSINIT1 (CODE)
	.area GSINIT2 (CODE)
	.area GSINIT3 (CODE)
	.area GSINIT4 (CODE)
	.area GSINIT5 (CODE)
	.area GSINIT  (CODE)
	.area GSFINAL (CODE)
	.area CSEG    (CODE)
;--------------------------------------------------------
; interrupt vector 
;--------------------------------------------------------
	.area HOME    (CODE)
__interrupt_vect:
	ljmp	__sdcc_gsinit_startup
	reti
	.ds	7
	reti
	.ds	7
	reti
	.ds	7
	reti
	.ds	7
	reti
	.ds	7
	reti
	.ds	7
	reti
	.ds	7
	reti
	.ds	7
	reti
	.ds	7
	ljmp	_PCA_ISR
;--------------------------------------------------------
; global & static initialisations
;--------------------------------------------------------
	.area HOME    (CODE)
	.area GSINIT  (CODE)
	.area GSFINAL (CODE)
	.area GSINIT  (CODE)
	.globl __sdcc_gsinit_startup
	.globl __sdcc_program_startup
	.globl __start__stack
	.globl __mcs51_genXINIT
	.globl __mcs51_genXRAMCLEAR
	.globl __mcs51_genRAMCLEAR
	C$lab_5.c$29$1$197 ==.
;	C:\Users\gerlig\Documents\School\LITEC\LAB5\lab-5.c:29: unsigned int MOTOR_STOP = 2760;
	mov	_MOTOR_STOP,#0xc8
	mov	(_MOTOR_STOP + 1),#0x0a
	C$lab_5.c$30$1$197 ==.
;	C:\Users\gerlig\Documents\School\LITEC\LAB5\lab-5.c:30: unsigned int MOTOR_MAX = 3500;
	mov	_MOTOR_MAX,#0xac
	mov	(_MOTOR_MAX + 1),#0x0d
	C$lab_5.c$31$1$197 ==.
;	C:\Users\gerlig\Documents\School\LITEC\LAB5\lab-5.c:31: unsigned int MOTOR_MIN = 2030;
	mov	_MOTOR_MIN,#0xee
	mov	(_MOTOR_MIN + 1),#0x07
	C$lab_5.c$32$1$197 ==.
;	C:\Users\gerlig\Documents\School\LITEC\LAB5\lab-5.c:32: unsigned int MOTOR_PW = 0;
	clr	a
	mov	_MOTOR_PW,a
	mov	(_MOTOR_PW + 1),a
	C$lab_5.c$33$1$197 ==.
;	C:\Users\gerlig\Documents\School\LITEC\LAB5\lab-5.c:33: unsigned int SERVO_CENTER = 2834;
	mov	_SERVO_CENTER,#0x12
	mov	(_SERVO_CENTER + 1),#0x0b
	C$lab_5.c$34$1$197 ==.
;	C:\Users\gerlig\Documents\School\LITEC\LAB5\lab-5.c:34: unsigned int SERVO_RIGHT = 3374;
	mov	_SERVO_RIGHT,#0x2e
	mov	(_SERVO_RIGHT + 1),#0x0d
	C$lab_5.c$35$1$197 ==.
;	C:\Users\gerlig\Documents\School\LITEC\LAB5\lab-5.c:35: unsigned int SERVO_LEFT = 2294;
	mov	_SERVO_LEFT,#0xf6
	mov	(_SERVO_LEFT + 1),#0x08
	C$lab_5.c$36$1$197 ==.
;	C:\Users\gerlig\Documents\School\LITEC\LAB5\lab-5.c:36: unsigned int SERVO_PW = 0;
	mov	_SERVO_PW,a
	mov	(_SERVO_PW + 1),a
	C$lab_5.c$38$1$197 ==.
;	C:\Users\gerlig\Documents\School\LITEC\LAB5\lab-5.c:38: unsigned char new_accel = 0; // flag for count of accel timing
;	1-genFromRTrack replaced	mov	_new_accel,#0x00
	mov	_new_accel,a
	C$lab_5.c$39$1$197 ==.
;	C:\Users\gerlig\Documents\School\LITEC\LAB5\lab-5.c:39: unsigned char new_lcd = 0; // flag for count of LCD timing
;	1-genFromRTrack replaced	mov	_new_lcd,#0x00
	mov	_new_lcd,a
	C$lab_5.c$44$1$197 ==.
;	C:\Users\gerlig\Documents\School\LITEC\LAB5\lab-5.c:44: signed int gx = 0;
	mov	_gx,a
	mov	(_gx + 1),a
	C$lab_5.c$45$1$197 ==.
;	C:\Users\gerlig\Documents\School\LITEC\LAB5\lab-5.c:45: signed int gy = 0;
	mov	_gy,a
	mov	(_gy + 1),a
	C$lab_5.c$46$1$197 ==.
;	C:\Users\gerlig\Documents\School\LITEC\LAB5\lab-5.c:46: signed int x0 = 0;
	mov	_x0,a
	mov	(_x0 + 1),a
	C$lab_5.c$47$1$197 ==.
;	C:\Users\gerlig\Documents\School\LITEC\LAB5\lab-5.c:47: signed int y0 = 0;
	mov	_y0,a
	mov	(_y0 + 1),a
	C$lab_5.c$51$1$197 ==.
;	C:\Users\gerlig\Documents\School\LITEC\LAB5\lab-5.c:51: unsigned char levelflag = 1;
	mov	_levelflag,#0x01
	C$lab_5.c$52$1$197 ==.
;	C:\Users\gerlig\Documents\School\LITEC\LAB5\lab-5.c:52: unsigned int nCounts = 0;
	mov	_nCounts,a
	mov	(_nCounts + 1),a
	C$lab_5.c$54$1$197 ==.
;	C:\Users\gerlig\Documents\School\LITEC\LAB5\lab-5.c:54: int Constant = 1;
	mov	_Constant,#0x01
;	1-genFromRTrack replaced	mov	(_Constant + 1),#0x00
	mov	(_Constant + 1),a
	.area GSFINAL (CODE)
	ljmp	__sdcc_program_startup
;--------------------------------------------------------
; Home
;--------------------------------------------------------
	.area HOME    (CODE)
	.area HOME    (CODE)
__sdcc_program_startup:
	ljmp	_main
;	return from main will return to caller
;--------------------------------------------------------
; code
;--------------------------------------------------------
	.area CSEG    (CODE)
;------------------------------------------------------------
;Allocation info for local variables in function 'SYSCLK_Init'
;------------------------------------------------------------
;i                         Allocated to registers r6 r7 
;------------------------------------------------------------
	G$SYSCLK_Init$0$0 ==.
	C$c8051_SDCC.h$62$0$0 ==.
;	C:/Program Files/SDCC/bin/../include/mcs51/c8051_SDCC.h:62: void SYSCLK_Init(void)
;	-----------------------------------------
;	 function SYSCLK_Init
;	-----------------------------------------
_SYSCLK_Init:
	ar7 = 0x07
	ar6 = 0x06
	ar5 = 0x05
	ar4 = 0x04
	ar3 = 0x03
	ar2 = 0x02
	ar1 = 0x01
	ar0 = 0x00
	C$c8051_SDCC.h$66$1$2 ==.
;	C:/Program Files/SDCC/bin/../include/mcs51/c8051_SDCC.h:66: OSCXCN = 0x67;                      // start external oscillator with
	mov	_OSCXCN,#0x67
	C$c8051_SDCC.h$69$1$2 ==.
;	C:/Program Files/SDCC/bin/../include/mcs51/c8051_SDCC.h:69: for (i=0; i < 256; i++);            // wait for oscillator to start
	mov	r6,#0x00
	mov	r7,#0x01
00107$:
	mov	a,r6
	add	a,#0xff
	mov	r4,a
	mov	a,r7
	addc	a,#0xff
	mov	r5,a
	mov	ar6,r4
	mov	ar7,r5
	mov	a,r4
	orl	a,r5
	jnz	00107$
	C$c8051_SDCC.h$71$1$2 ==.
;	C:/Program Files/SDCC/bin/../include/mcs51/c8051_SDCC.h:71: while (!(OSCXCN & 0x80));           // Wait for crystal osc. to settle
00102$:
	mov	a,_OSCXCN
	jnb	acc.7,00102$
	C$c8051_SDCC.h$73$1$2 ==.
;	C:/Program Files/SDCC/bin/../include/mcs51/c8051_SDCC.h:73: OSCICN = 0x88;                      // select external oscillator as SYSCLK
	mov	_OSCICN,#0x88
	C$c8051_SDCC.h$76$1$2 ==.
	XG$SYSCLK_Init$0$0 ==.
	ret
;------------------------------------------------------------
;Allocation info for local variables in function 'UART0_Init'
;------------------------------------------------------------
	G$UART0_Init$0$0 ==.
	C$c8051_SDCC.h$84$1$2 ==.
;	C:/Program Files/SDCC/bin/../include/mcs51/c8051_SDCC.h:84: void UART0_Init(void)
;	-----------------------------------------
;	 function UART0_Init
;	-----------------------------------------
_UART0_Init:
	C$c8051_SDCC.h$86$1$4 ==.
;	C:/Program Files/SDCC/bin/../include/mcs51/c8051_SDCC.h:86: SCON0  = 0x50;                      // SCON0: mode 1, 8-bit UART, enable RX
	mov	_SCON0,#0x50
	C$c8051_SDCC.h$87$1$4 ==.
;	C:/Program Files/SDCC/bin/../include/mcs51/c8051_SDCC.h:87: TMOD   = 0x20;                      // TMOD: timer 1, mode 2, 8-bit reload
	mov	_TMOD,#0x20
	C$c8051_SDCC.h$88$1$4 ==.
;	C:/Program Files/SDCC/bin/../include/mcs51/c8051_SDCC.h:88: TH1    = 0xFF&-(SYSCLK/BAUDRATE/16);     // set Timer1 reload value for baudrate
	mov	_TH1,#0xdc
	C$c8051_SDCC.h$89$1$4 ==.
;	C:/Program Files/SDCC/bin/../include/mcs51/c8051_SDCC.h:89: TR1    = 1;                         // start Timer1
	setb	_TR1
	C$c8051_SDCC.h$90$1$4 ==.
;	C:/Program Files/SDCC/bin/../include/mcs51/c8051_SDCC.h:90: CKCON |= 0x10;                      // Timer1 uses SYSCLK as time base
	orl	_CKCON,#0x10
	C$c8051_SDCC.h$91$1$4 ==.
;	C:/Program Files/SDCC/bin/../include/mcs51/c8051_SDCC.h:91: PCON  |= 0x80;                      // SMOD00 = 1 (disable baud rate 
	orl	_PCON,#0x80
	C$c8051_SDCC.h$93$1$4 ==.
;	C:/Program Files/SDCC/bin/../include/mcs51/c8051_SDCC.h:93: TI0    = 1;                         // Indicate TX0 ready
	setb	_TI0
	C$c8051_SDCC.h$94$1$4 ==.
;	C:/Program Files/SDCC/bin/../include/mcs51/c8051_SDCC.h:94: P0MDOUT |= 0x01;                    // Set TX0 to push/pull
	orl	_P0MDOUT,#0x01
	C$c8051_SDCC.h$95$1$4 ==.
	XG$UART0_Init$0$0 ==.
	ret
;------------------------------------------------------------
;Allocation info for local variables in function 'Sys_Init'
;------------------------------------------------------------
	G$Sys_Init$0$0 ==.
	C$c8051_SDCC.h$103$1$4 ==.
;	C:/Program Files/SDCC/bin/../include/mcs51/c8051_SDCC.h:103: void Sys_Init(void)
;	-----------------------------------------
;	 function Sys_Init
;	-----------------------------------------
_Sys_Init:
	C$c8051_SDCC.h$105$1$6 ==.
;	C:/Program Files/SDCC/bin/../include/mcs51/c8051_SDCC.h:105: WDTCN = 0xde;			// disable watchdog timer
	mov	_WDTCN,#0xde
	C$c8051_SDCC.h$106$1$6 ==.
;	C:/Program Files/SDCC/bin/../include/mcs51/c8051_SDCC.h:106: WDTCN = 0xad;
	mov	_WDTCN,#0xad
	C$c8051_SDCC.h$108$1$6 ==.
;	C:/Program Files/SDCC/bin/../include/mcs51/c8051_SDCC.h:108: SYSCLK_Init();			// initialize oscillator
	lcall	_SYSCLK_Init
	C$c8051_SDCC.h$109$1$6 ==.
;	C:/Program Files/SDCC/bin/../include/mcs51/c8051_SDCC.h:109: UART0_Init();			// initialize UART0
	lcall	_UART0_Init
	C$c8051_SDCC.h$111$1$6 ==.
;	C:/Program Files/SDCC/bin/../include/mcs51/c8051_SDCC.h:111: XBR0 |= 0x04;
	orl	_XBR0,#0x04
	C$c8051_SDCC.h$112$1$6 ==.
;	C:/Program Files/SDCC/bin/../include/mcs51/c8051_SDCC.h:112: XBR2 |= 0x40;                    	// Enable crossbar and weak pull-ups
	orl	_XBR2,#0x40
	C$c8051_SDCC.h$113$1$6 ==.
	XG$Sys_Init$0$0 ==.
	ret
;------------------------------------------------------------
;Allocation info for local variables in function 'putchar'
;------------------------------------------------------------
;c                         Allocated to registers r7 
;------------------------------------------------------------
	G$putchar$0$0 ==.
	C$c8051_SDCC.h$129$1$6 ==.
;	C:/Program Files/SDCC/bin/../include/mcs51/c8051_SDCC.h:129: void putchar(char c)
;	-----------------------------------------
;	 function putchar
;	-----------------------------------------
_putchar:
	mov	r7,dpl
	C$c8051_SDCC.h$132$1$8 ==.
;	C:/Program Files/SDCC/bin/../include/mcs51/c8051_SDCC.h:132: while (!TI0); 
00101$:
	C$c8051_SDCC.h$133$1$8 ==.
;	C:/Program Files/SDCC/bin/../include/mcs51/c8051_SDCC.h:133: TI0 = 0;
	jbc	_TI0,00112$
	sjmp	00101$
00112$:
	C$c8051_SDCC.h$134$1$8 ==.
;	C:/Program Files/SDCC/bin/../include/mcs51/c8051_SDCC.h:134: SBUF0 = c;
	mov	_SBUF0,r7
	C$c8051_SDCC.h$135$1$8 ==.
	XG$putchar$0$0 ==.
	ret
;------------------------------------------------------------
;Allocation info for local variables in function 'getchar'
;------------------------------------------------------------
;c                         Allocated to registers r7 
;------------------------------------------------------------
	G$getchar$0$0 ==.
	C$c8051_SDCC.h$154$1$8 ==.
;	C:/Program Files/SDCC/bin/../include/mcs51/c8051_SDCC.h:154: char getchar(void)
;	-----------------------------------------
;	 function getchar
;	-----------------------------------------
_getchar:
	C$c8051_SDCC.h$157$1$10 ==.
;	C:/Program Files/SDCC/bin/../include/mcs51/c8051_SDCC.h:157: while (!RI0);
00101$:
	C$c8051_SDCC.h$158$1$10 ==.
;	C:/Program Files/SDCC/bin/../include/mcs51/c8051_SDCC.h:158: RI0 = 0;
	jbc	_RI0,00112$
	sjmp	00101$
00112$:
	C$c8051_SDCC.h$159$1$10 ==.
;	C:/Program Files/SDCC/bin/../include/mcs51/c8051_SDCC.h:159: c = SBUF0;
	mov	r7,_SBUF0
	C$c8051_SDCC.h$160$1$10 ==.
;	C:/Program Files/SDCC/bin/../include/mcs51/c8051_SDCC.h:160: putchar(c);                          // echo to terminal
	mov	dpl,r7
	push	ar7
	lcall	_putchar
	pop	ar7
	C$c8051_SDCC.h$161$1$10 ==.
;	C:/Program Files/SDCC/bin/../include/mcs51/c8051_SDCC.h:161: return c;
	mov	dpl,r7
	C$c8051_SDCC.h$162$1$10 ==.
	XG$getchar$0$0 ==.
	ret
;------------------------------------------------------------
;Allocation info for local variables in function 'getchar_nw'
;------------------------------------------------------------
;c                         Allocated to registers 
;------------------------------------------------------------
	G$getchar_nw$0$0 ==.
	C$c8051_SDCC.h$168$1$10 ==.
;	C:/Program Files/SDCC/bin/../include/mcs51/c8051_SDCC.h:168: char getchar_nw(void)
;	-----------------------------------------
;	 function getchar_nw
;	-----------------------------------------
_getchar_nw:
	C$c8051_SDCC.h$171$1$12 ==.
;	C:/Program Files/SDCC/bin/../include/mcs51/c8051_SDCC.h:171: if (!RI0) return 0xFF;
	jb	_RI0,00102$
	mov	dpl,#0xff
	sjmp	00104$
00102$:
	C$c8051_SDCC.h$174$2$13 ==.
;	C:/Program Files/SDCC/bin/../include/mcs51/c8051_SDCC.h:174: RI0 = 0;
	clr	_RI0
	C$c8051_SDCC.h$175$2$13 ==.
;	C:/Program Files/SDCC/bin/../include/mcs51/c8051_SDCC.h:175: c = SBUF0;
	mov	dpl,_SBUF0
	C$c8051_SDCC.h$176$2$13 ==.
;	C:/Program Files/SDCC/bin/../include/mcs51/c8051_SDCC.h:176: putchar(c);                          // echo to terminal
	lcall	_putchar
	C$c8051_SDCC.h$177$2$13 ==.
;	C:/Program Files/SDCC/bin/../include/mcs51/c8051_SDCC.h:177: return SBUF0;
	mov	dpl,_SBUF0
00104$:
	C$c8051_SDCC.h$179$1$12 ==.
	XG$getchar_nw$0$0 ==.
	ret
;------------------------------------------------------------
;Allocation info for local variables in function 'lcd_print'
;------------------------------------------------------------
;fmt                       Allocated to stack - _bp -5
;len                       Allocated to registers r6 
;i                         Allocated to registers 
;ap                        Allocated to registers 
;text                      Allocated with name '_lcd_print_text_1_81'
;------------------------------------------------------------
	G$lcd_print$0$0 ==.
	C$i2c.h$84$1$12 ==.
;	C:/Program Files/SDCC/bin/../include/mcs51/i2c.h:84: void lcd_print(const char *fmt, ...)
;	-----------------------------------------
;	 function lcd_print
;	-----------------------------------------
_lcd_print:
	push	_bp
	mov	_bp,sp
	C$i2c.h$90$1$81 ==.
;	C:/Program Files/SDCC/bin/../include/mcs51/i2c.h:90: if ( strlen(fmt) <= 0 ) return;         //If there is no data to print, return
	mov	a,_bp
	add	a,#0xfb
	mov	r0,a
	mov	dpl,@r0
	inc	r0
	mov	dph,@r0
	inc	r0
	mov	b,@r0
	lcall	_strlen
	mov	a,dpl
	mov	b,dph
	orl	a,b
	jnz	00102$
	sjmp	00109$
00102$:
	C$i2c.h$92$2$82 ==.
;	C:/Program Files/SDCC/bin/../include/mcs51/i2c.h:92: va_start(ap, fmt);
	mov	a,_bp
	add	a,#0xfb
	mov	r7,a
	mov	_vsprintf_PARM_3,r7
	C$i2c.h$93$1$81 ==.
;	C:/Program Files/SDCC/bin/../include/mcs51/i2c.h:93: vsprintf(text, fmt, ap);
	mov	a,_bp
	add	a,#0xfb
	mov	r0,a
	mov	_vsprintf_PARM_2,@r0
	inc	r0
	mov	(_vsprintf_PARM_2 + 1),@r0
	inc	r0
	mov	(_vsprintf_PARM_2 + 2),@r0
	mov	dptr,#_lcd_print_text_1_81
	mov	b,#0x00
	lcall	_vsprintf
	C$i2c.h$96$1$81 ==.
;	C:/Program Files/SDCC/bin/../include/mcs51/i2c.h:96: len = strlen(text);
	mov	dptr,#_lcd_print_text_1_81
	mov	b,#0x00
	lcall	_strlen
	mov	r6,dpl
	C$i2c.h$97$1$81 ==.
;	C:/Program Files/SDCC/bin/../include/mcs51/i2c.h:97: for(i=0; i<len; i++)
	mov	r7,#0x00
00107$:
	clr	c
	mov	a,r7
	subb	a,r6
	jnc	00105$
	C$i2c.h$99$2$84 ==.
;	C:/Program Files/SDCC/bin/../include/mcs51/i2c.h:99: if(text[i] == (unsigned char)'\n') text[i] = 13;
	mov	a,r7
	add	a,#_lcd_print_text_1_81
	mov	dpl,a
	clr	a
	addc	a,#(_lcd_print_text_1_81 >> 8)
	mov	dph,a
	movx	a,@dptr
	mov	r5,a
	cjne	r5,#0x0a,00108$
	mov	a,r7
	add	a,#_lcd_print_text_1_81
	mov	dpl,a
	clr	a
	addc	a,#(_lcd_print_text_1_81 >> 8)
	mov	dph,a
	mov	a,#0x0d
	movx	@dptr,a
00108$:
	C$i2c.h$97$1$81 ==.
;	C:/Program Files/SDCC/bin/../include/mcs51/i2c.h:97: for(i=0; i<len; i++)
	inc	r7
	sjmp	00107$
00105$:
	C$i2c.h$102$1$81 ==.
;	C:/Program Files/SDCC/bin/../include/mcs51/i2c.h:102: i2c_write_data(0xC6, 0x00, text, len);
	mov	_i2c_write_data_PARM_3,#_lcd_print_text_1_81
	mov	(_i2c_write_data_PARM_3 + 1),#(_lcd_print_text_1_81 >> 8)
	mov	(_i2c_write_data_PARM_3 + 2),#0x00
	mov	_i2c_write_data_PARM_2,#0x00
	mov	_i2c_write_data_PARM_4,r6
	mov	dpl,#0xc6
	lcall	_i2c_write_data
00109$:
	pop	_bp
	C$i2c.h$103$1$81 ==.
	XG$lcd_print$0$0 ==.
	ret
;------------------------------------------------------------
;Allocation info for local variables in function 'lcd_clear'
;------------------------------------------------------------
;NumBytes                  Allocated with name '_lcd_clear_NumBytes_1_85'
;Cmd                       Allocated with name '_lcd_clear_Cmd_1_85'
;------------------------------------------------------------
	G$lcd_clear$0$0 ==.
	C$i2c.h$106$1$81 ==.
;	C:/Program Files/SDCC/bin/../include/mcs51/i2c.h:106: void lcd_clear()
;	-----------------------------------------
;	 function lcd_clear
;	-----------------------------------------
_lcd_clear:
	C$i2c.h$108$1$81 ==.
;	C:/Program Files/SDCC/bin/../include/mcs51/i2c.h:108: unsigned char NumBytes=0, Cmd[2];
	mov	_lcd_clear_NumBytes_1_85,#0x00
	C$i2c.h$110$1$85 ==.
;	C:/Program Files/SDCC/bin/../include/mcs51/i2c.h:110: while(NumBytes < 64) i2c_read_data(0xC6, 0x00, &NumBytes, 1);
00101$:
	mov	a,#0x100 - 0x40
	add	a,_lcd_clear_NumBytes_1_85
	jc	00103$
	mov	_i2c_read_data_PARM_3,#_lcd_clear_NumBytes_1_85
	mov	(_i2c_read_data_PARM_3 + 1),#0x00
	mov	(_i2c_read_data_PARM_3 + 2),#0x40
	mov	_i2c_read_data_PARM_2,#0x00
	mov	_i2c_read_data_PARM_4,#0x01
	mov	dpl,#0xc6
	lcall	_i2c_read_data
	sjmp	00101$
00103$:
	C$i2c.h$112$1$85 ==.
;	C:/Program Files/SDCC/bin/../include/mcs51/i2c.h:112: Cmd[0] = 12;
	mov	_lcd_clear_Cmd_1_85,#0x0c
	C$i2c.h$113$1$85 ==.
;	C:/Program Files/SDCC/bin/../include/mcs51/i2c.h:113: i2c_write_data(0xC6, 0x00, Cmd, 1);
	mov	_i2c_write_data_PARM_3,#_lcd_clear_Cmd_1_85
	mov	(_i2c_write_data_PARM_3 + 1),#0x00
	mov	(_i2c_write_data_PARM_3 + 2),#0x40
	mov	_i2c_write_data_PARM_2,#0x00
	mov	_i2c_write_data_PARM_4,#0x01
	mov	dpl,#0xc6
	lcall	_i2c_write_data
	C$i2c.h$114$1$85 ==.
	XG$lcd_clear$0$0 ==.
	ret
;------------------------------------------------------------
;Allocation info for local variables in function 'read_keypad'
;------------------------------------------------------------
;i                         Allocated to registers r7 
;Data                      Allocated with name '_read_keypad_Data_1_86'
;------------------------------------------------------------
	G$read_keypad$0$0 ==.
	C$i2c.h$117$1$85 ==.
;	C:/Program Files/SDCC/bin/../include/mcs51/i2c.h:117: char read_keypad()
;	-----------------------------------------
;	 function read_keypad
;	-----------------------------------------
_read_keypad:
	C$i2c.h$121$1$86 ==.
;	C:/Program Files/SDCC/bin/../include/mcs51/i2c.h:121: i2c_read_data(0xC6, 0x01, Data, 2); //Read I2C data on address 192, register 1, 2 bytes of data.
	mov	_i2c_read_data_PARM_3,#_read_keypad_Data_1_86
	mov	(_i2c_read_data_PARM_3 + 1),#0x00
	mov	(_i2c_read_data_PARM_3 + 2),#0x40
	mov	_i2c_read_data_PARM_2,#0x01
	mov	_i2c_read_data_PARM_4,#0x02
	mov	dpl,#0xc6
	lcall	_i2c_read_data
	C$i2c.h$122$1$86 ==.
;	C:/Program Files/SDCC/bin/../include/mcs51/i2c.h:122: if(Data[0] == 0xFF) return 0;   //No response on bus, no display
	mov	a,#0xff
	cjne	a,_read_keypad_Data_1_86,00102$
	mov	dpl,#0x00
	sjmp	00116$
00102$:
	C$i2c.h$124$1$86 ==.
;	C:/Program Files/SDCC/bin/../include/mcs51/i2c.h:124: for(i=0; i<8; i++)              //loop 8 times
	mov	r7,#0x00
	mov	ar6,r7
00114$:
	C$i2c.h$126$2$87 ==.
;	C:/Program Files/SDCC/bin/../include/mcs51/i2c.h:126: if(Data[0] & (0x01 << i))   //find the ASCII value of the keypad read, if it is the current loop value
	mov	b,r6
	inc	b
	mov	r4,#0x01
	mov	r5,#0x00
	sjmp	00145$
00144$:
	mov	a,r4
	add	a,r4
	mov	r4,a
	mov	a,r5
	rlc	a
	mov	r5,a
00145$:
	djnz	b,00144$
	mov	r2,_read_keypad_Data_1_86
	mov	r3,#0x00
	mov	a,r2
	anl	ar4,a
	mov	a,r3
	anl	ar5,a
	mov	a,r4
	orl	a,r5
	jz	00115$
	C$i2c.h$127$2$87 ==.
;	C:/Program Files/SDCC/bin/../include/mcs51/i2c.h:127: return i+49;
	mov	a,#0x31
	add	a,r7
	mov	dpl,a
	sjmp	00116$
00115$:
	C$i2c.h$124$1$86 ==.
;	C:/Program Files/SDCC/bin/../include/mcs51/i2c.h:124: for(i=0; i<8; i++)              //loop 8 times
	inc	r6
	mov	ar7,r6
	cjne	r6,#0x08,00147$
00147$:
	jc	00114$
	C$i2c.h$130$1$86 ==.
;	C:/Program Files/SDCC/bin/../include/mcs51/i2c.h:130: if(Data[1] & 0x01) return '9';  //if the value is equal to 9 return 9.
	mov	a,(_read_keypad_Data_1_86 + 0x0001)
	jnb	acc.0,00107$
	mov	dpl,#0x39
	sjmp	00116$
00107$:
	C$i2c.h$132$1$86 ==.
;	C:/Program Files/SDCC/bin/../include/mcs51/i2c.h:132: if(Data[1] & 0x02) return '*';  //if the value is equal to the star.
	mov	a,(_read_keypad_Data_1_86 + 0x0001)
	jnb	acc.1,00109$
	mov	dpl,#0x2a
	sjmp	00116$
00109$:
	C$i2c.h$134$1$86 ==.
;	C:/Program Files/SDCC/bin/../include/mcs51/i2c.h:134: if(Data[1] & 0x04) return '0';  //if the value is equal to the 0 key
	mov	a,(_read_keypad_Data_1_86 + 0x0001)
	jnb	acc.2,00111$
	mov	dpl,#0x30
	sjmp	00116$
00111$:
	C$i2c.h$136$1$86 ==.
;	C:/Program Files/SDCC/bin/../include/mcs51/i2c.h:136: if(Data[1] & 0x08) return '#';  //if the value is equal to the pound key
	mov	a,(_read_keypad_Data_1_86 + 0x0001)
	jnb	acc.3,00113$
	mov	dpl,#0x23
	sjmp	00116$
00113$:
	C$i2c.h$138$1$86 ==.
;	C:/Program Files/SDCC/bin/../include/mcs51/i2c.h:138: return 0xFF;                    //else return a numerical -1 (0xFF)
	mov	dpl,#0xff
00116$:
	C$i2c.h$139$1$86 ==.
	XG$read_keypad$0$0 ==.
	ret
;------------------------------------------------------------
;Allocation info for local variables in function 'kpd_input'
;------------------------------------------------------------
;mode                      Allocated to registers r7 
;sum                       Allocated to registers r5 r6 
;key                       Allocated to registers r3 
;i                         Allocated to registers 
;------------------------------------------------------------
	G$kpd_input$0$0 ==.
	C$i2c.h$151$1$86 ==.
;	C:/Program Files/SDCC/bin/../include/mcs51/i2c.h:151: unsigned int kpd_input(char mode)
;	-----------------------------------------
;	 function kpd_input
;	-----------------------------------------
_kpd_input:
	mov	r7,dpl
	C$i2c.h$156$1$89 ==.
;	C:/Program Files/SDCC/bin/../include/mcs51/i2c.h:156: sum = 0;
	C$i2c.h$159$1$89 ==.
;	C:/Program Files/SDCC/bin/../include/mcs51/i2c.h:159: if(mode==0)lcd_print("\nType digits; end w/#");
	clr	a
	mov	r5,a
	mov	r6,a
	mov	a,r7
	jnz	00102$
	push	ar6
	push	ar5
	mov	a,#___str_0
	push	acc
	mov	a,#(___str_0 >> 8)
	push	acc
	mov	a,#0x80
	push	acc
	lcall	_lcd_print
	dec	sp
	dec	sp
	dec	sp
	pop	ar5
	pop	ar6
00102$:
	C$i2c.h$161$1$89 ==.
;	C:/Program Files/SDCC/bin/../include/mcs51/i2c.h:161: lcd_print("     %c%c%c%c%c",0x08,0x08,0x08,0x08,0x08);
	push	ar6
	push	ar5
	mov	a,#0x08
	push	acc
	clr	a
	push	acc
	mov	a,#0x08
	push	acc
	clr	a
	push	acc
	mov	a,#0x08
	push	acc
	clr	a
	push	acc
	mov	a,#0x08
	push	acc
	clr	a
	push	acc
	mov	a,#0x08
	push	acc
	clr	a
	push	acc
	mov	a,#___str_1
	push	acc
	mov	a,#(___str_1 >> 8)
	push	acc
	mov	a,#0x80
	push	acc
	lcall	_lcd_print
	mov	a,sp
	add	a,#0xf3
	mov	sp,a
	C$i2c.h$163$1$89 ==.
;	C:/Program Files/SDCC/bin/../include/mcs51/i2c.h:163: delay_time(500000);             //Add 20ms delay before reading i2c in loop
	mov	dptr,#0xa120
	mov	b,#0x07
	clr	a
	lcall	_delay_time
	pop	ar5
	pop	ar6
	C$i2c.h$167$1$89 ==.
;	C:/Program Files/SDCC/bin/../include/mcs51/i2c.h:167: for(i=0; i<5; i++)
	mov	r7,#0x00
	C$i2c.h$169$3$92 ==.
;	C:/Program Files/SDCC/bin/../include/mcs51/i2c.h:169: while(((key=read_keypad()) == 0xFF) || (key == '*'))delay_time(10000);
00104$:
	push	ar7
	push	ar6
	push	ar5
	lcall	_read_keypad
	mov	r4,dpl
	pop	ar5
	pop	ar6
	pop	ar7
	mov	ar3,r4
	cjne	r4,#0xff,00146$
	sjmp	00105$
00146$:
	cjne	r3,#0x2a,00106$
00105$:
	mov	dptr,#0x2710
	clr	a
	mov	b,a
	push	ar7
	push	ar6
	push	ar5
	lcall	_delay_time
	pop	ar5
	pop	ar6
	pop	ar7
	sjmp	00104$
00106$:
	C$i2c.h$170$2$90 ==.
;	C:/Program Files/SDCC/bin/../include/mcs51/i2c.h:170: if(key == '#')
	cjne	r3,#0x23,00114$
	C$i2c.h$172$3$91 ==.
;	C:/Program Files/SDCC/bin/../include/mcs51/i2c.h:172: while(read_keypad() == '#')delay_time(10000);
00107$:
	push	ar6
	push	ar5
	lcall	_read_keypad
	mov	r4,dpl
	pop	ar5
	pop	ar6
	cjne	r4,#0x23,00109$
	mov	dptr,#0x2710
	clr	a
	mov	b,a
	push	ar6
	push	ar5
	lcall	_delay_time
	pop	ar5
	pop	ar6
	sjmp	00107$
00109$:
	C$i2c.h$173$3$91 ==.
;	C:/Program Files/SDCC/bin/../include/mcs51/i2c.h:173: return sum;
	mov	dpl,r5
	mov	dph,r6
	ljmp	00119$
00114$:
	C$i2c.h$177$3$92 ==.
;	C:/Program Files/SDCC/bin/../include/mcs51/i2c.h:177: lcd_print("%c", key);
	mov	ar2,r3
	mov	r4,#0x00
	push	ar7
	push	ar6
	push	ar5
	push	ar4
	push	ar3
	push	ar2
	push	ar2
	push	ar4
	mov	a,#___str_2
	push	acc
	mov	a,#(___str_2 >> 8)
	push	acc
	mov	a,#0x80
	push	acc
	lcall	_lcd_print
	mov	a,sp
	add	a,#0xfb
	mov	sp,a
	pop	ar2
	pop	ar3
	pop	ar4
	pop	ar5
	pop	ar6
	C$i2c.h$178$1$89 ==.
;	C:/Program Files/SDCC/bin/../include/mcs51/i2c.h:178: sum = sum*10 + key - '0';
	mov	__mulint_PARM_2,r5
	mov	(__mulint_PARM_2 + 1),r6
	mov	dptr,#0x000a
	push	ar4
	push	ar3
	push	ar2
	lcall	__mulint
	mov	r0,dpl
	mov	r1,dph
	pop	ar2
	pop	ar3
	pop	ar4
	pop	ar7
	mov	a,r2
	add	a,r0
	mov	r0,a
	mov	a,r4
	addc	a,r1
	mov	r1,a
	mov	a,r0
	add	a,#0xd0
	mov	r5,a
	mov	a,r1
	addc	a,#0xff
	mov	r6,a
	C$i2c.h$179$3$92 ==.
;	C:/Program Files/SDCC/bin/../include/mcs51/i2c.h:179: while(read_keypad() == key)delay_time(10000); //wait for key to be released
00110$:
	push	ar7
	push	ar6
	push	ar5
	push	ar3
	lcall	_read_keypad
	mov	r4,dpl
	pop	ar3
	pop	ar5
	pop	ar6
	pop	ar7
	mov	a,r4
	cjne	a,ar3,00118$
	mov	dptr,#0x2710
	clr	a
	mov	b,a
	push	ar7
	push	ar6
	push	ar5
	push	ar3
	lcall	_delay_time
	pop	ar3
	pop	ar5
	pop	ar6
	pop	ar7
	sjmp	00110$
00118$:
	C$i2c.h$167$1$89 ==.
;	C:/Program Files/SDCC/bin/../include/mcs51/i2c.h:167: for(i=0; i<5; i++)
	inc	r7
	cjne	r7,#0x05,00155$
00155$:
	jnc	00156$
	ljmp	00104$
00156$:
	C$i2c.h$182$1$89 ==.
;	C:/Program Files/SDCC/bin/../include/mcs51/i2c.h:182: return sum;
	mov	dpl,r5
	mov	dph,r6
00119$:
	C$i2c.h$183$1$89 ==.
	XG$kpd_input$0$0 ==.
	ret
;------------------------------------------------------------
;Allocation info for local variables in function 'delay_time'
;------------------------------------------------------------
;time_end                  Allocated to registers r4 r5 r6 r7 
;index                     Allocated to registers 
;------------------------------------------------------------
	G$delay_time$0$0 ==.
	C$i2c.h$192$1$89 ==.
;	C:/Program Files/SDCC/bin/../include/mcs51/i2c.h:192: void delay_time (unsigned long time_end)
;	-----------------------------------------
;	 function delay_time
;	-----------------------------------------
_delay_time:
	mov	r4,dpl
	mov	r5,dph
	mov	r6,b
	mov	r7,a
	C$i2c.h$196$1$94 ==.
;	C:/Program Files/SDCC/bin/../include/mcs51/i2c.h:196: for (index = 0; index < time_end; index++); //for loop delay
	mov	r0,#0x00
	mov	r1,#0x00
	mov	r2,#0x00
	mov	r3,#0x00
00103$:
	clr	c
	mov	a,r0
	subb	a,r4
	mov	a,r1
	subb	a,r5
	mov	a,r2
	subb	a,r6
	mov	a,r3
	subb	a,r7
	jnc	00105$
	inc	r0
	cjne	r0,#0x00,00115$
	inc	r1
	cjne	r1,#0x00,00115$
	inc	r2
	cjne	r2,#0x00,00103$
	inc	r3
00115$:
	sjmp	00103$
00105$:
	C$i2c.h$197$1$94 ==.
	XG$delay_time$0$0 ==.
	ret
;------------------------------------------------------------
;Allocation info for local variables in function 'i2c_start'
;------------------------------------------------------------
	G$i2c_start$0$0 ==.
	C$i2c.h$200$1$94 ==.
;	C:/Program Files/SDCC/bin/../include/mcs51/i2c.h:200: void i2c_start(void)
;	-----------------------------------------
;	 function i2c_start
;	-----------------------------------------
_i2c_start:
	C$i2c.h$202$1$96 ==.
;	C:/Program Files/SDCC/bin/../include/mcs51/i2c.h:202: while(BUSY);                //Wait until SMBus0 is free
00101$:
	jb	_BUSY,00101$
	C$i2c.h$203$1$96 ==.
;	C:/Program Files/SDCC/bin/../include/mcs51/i2c.h:203: STA = 1;                    //Set Start Bit
	setb	_STA
	C$i2c.h$204$1$96 ==.
;	C:/Program Files/SDCC/bin/../include/mcs51/i2c.h:204: while(!SI);                 //Wait until start sent
00104$:
	jnb	_SI,00104$
	C$i2c.h$205$1$96 ==.
;	C:/Program Files/SDCC/bin/../include/mcs51/i2c.h:205: STA = 0;                    //Clear start bit
	clr	_STA
	C$i2c.h$206$1$96 ==.
;	C:/Program Files/SDCC/bin/../include/mcs51/i2c.h:206: SI = 0;                     //Clear SI
	clr	_SI
	C$i2c.h$207$1$96 ==.
	XG$i2c_start$0$0 ==.
	ret
;------------------------------------------------------------
;Allocation info for local variables in function 'i2c_write'
;------------------------------------------------------------
;output_data               Allocated to registers 
;------------------------------------------------------------
	G$i2c_write$0$0 ==.
	C$i2c.h$210$1$96 ==.
;	C:/Program Files/SDCC/bin/../include/mcs51/i2c.h:210: void i2c_write(unsigned char output_data)
;	-----------------------------------------
;	 function i2c_write
;	-----------------------------------------
_i2c_write:
	mov	_SMB0DAT,dpl
	C$i2c.h$213$1$98 ==.
;	C:/Program Files/SDCC/bin/../include/mcs51/i2c.h:213: while(!SI);                 //Wait until send is complete
00101$:
	C$i2c.h$214$1$98 ==.
;	C:/Program Files/SDCC/bin/../include/mcs51/i2c.h:214: SI = 0;                     //Clear SI
	jbc	_SI,00112$
	sjmp	00101$
00112$:
	C$i2c.h$215$1$98 ==.
	XG$i2c_write$0$0 ==.
	ret
;------------------------------------------------------------
;Allocation info for local variables in function 'i2c_write_and_stop'
;------------------------------------------------------------
;output_data               Allocated to registers 
;------------------------------------------------------------
	G$i2c_write_and_stop$0$0 ==.
	C$i2c.h$218$1$98 ==.
;	C:/Program Files/SDCC/bin/../include/mcs51/i2c.h:218: void i2c_write_and_stop(unsigned char output_data)
;	-----------------------------------------
;	 function i2c_write_and_stop
;	-----------------------------------------
_i2c_write_and_stop:
	mov	_SMB0DAT,dpl
	C$i2c.h$221$1$100 ==.
;	C:/Program Files/SDCC/bin/../include/mcs51/i2c.h:221: STO = 1;                    //Set stop bit
	setb	_STO
	C$i2c.h$222$1$100 ==.
;	C:/Program Files/SDCC/bin/../include/mcs51/i2c.h:222: while(!SI);                 //Wait until send is complete
00101$:
	C$i2c.h$223$1$100 ==.
;	C:/Program Files/SDCC/bin/../include/mcs51/i2c.h:223: SI = 0;                     //Clear SI
	jbc	_SI,00112$
	sjmp	00101$
00112$:
	C$i2c.h$224$1$100 ==.
	XG$i2c_write_and_stop$0$0 ==.
	ret
;------------------------------------------------------------
;Allocation info for local variables in function 'i2c_read'
;------------------------------------------------------------
;input_data                Allocated to registers 
;------------------------------------------------------------
	G$i2c_read$0$0 ==.
	C$i2c.h$227$1$100 ==.
;	C:/Program Files/SDCC/bin/../include/mcs51/i2c.h:227: unsigned char i2c_read(void)
;	-----------------------------------------
;	 function i2c_read
;	-----------------------------------------
_i2c_read:
	C$i2c.h$231$1$102 ==.
;	C:/Program Files/SDCC/bin/../include/mcs51/i2c.h:231: while(!SI);                 //Wait until we have data to read
00101$:
	jnb	_SI,00101$
	C$i2c.h$232$1$102 ==.
;	C:/Program Files/SDCC/bin/../include/mcs51/i2c.h:232: input_data = SMB0DAT;       //Read the data
	mov	dpl,_SMB0DAT
	C$i2c.h$233$1$102 ==.
;	C:/Program Files/SDCC/bin/../include/mcs51/i2c.h:233: SI = 0;                     //Clear SI
	clr	_SI
	C$i2c.h$234$1$102 ==.
;	C:/Program Files/SDCC/bin/../include/mcs51/i2c.h:234: return input_data;          //Return the read data
	C$i2c.h$235$1$102 ==.
	XG$i2c_read$0$0 ==.
	ret
;------------------------------------------------------------
;Allocation info for local variables in function 'i2c_read_and_stop'
;------------------------------------------------------------
;input_data                Allocated to registers r7 
;------------------------------------------------------------
	G$i2c_read_and_stop$0$0 ==.
	C$i2c.h$238$1$102 ==.
;	C:/Program Files/SDCC/bin/../include/mcs51/i2c.h:238: unsigned char i2c_read_and_stop(void)
;	-----------------------------------------
;	 function i2c_read_and_stop
;	-----------------------------------------
_i2c_read_and_stop:
	C$i2c.h$242$1$104 ==.
;	C:/Program Files/SDCC/bin/../include/mcs51/i2c.h:242: while(!SI);                 //Wait until we have data to read
00101$:
	jnb	_SI,00101$
	C$i2c.h$243$1$104 ==.
;	C:/Program Files/SDCC/bin/../include/mcs51/i2c.h:243: input_data = SMB0DAT;       //Read the data
	mov	r7,_SMB0DAT
	C$i2c.h$244$1$104 ==.
;	C:/Program Files/SDCC/bin/../include/mcs51/i2c.h:244: SI = 0;                     //Clear SI
	clr	_SI
	C$i2c.h$245$1$104 ==.
;	C:/Program Files/SDCC/bin/../include/mcs51/i2c.h:245: STO = 1;                    //Set stop bit
	setb	_STO
	C$i2c.h$246$1$104 ==.
;	C:/Program Files/SDCC/bin/../include/mcs51/i2c.h:246: while(!SI);                 //Wait for stop
00104$:
	C$i2c.h$247$1$104 ==.
;	C:/Program Files/SDCC/bin/../include/mcs51/i2c.h:247: SI = 0;
	jbc	_SI,00122$
	sjmp	00104$
00122$:
	C$i2c.h$248$1$104 ==.
;	C:/Program Files/SDCC/bin/../include/mcs51/i2c.h:248: return input_data;          //Return the read data
	mov	dpl,r7
	C$i2c.h$249$1$104 ==.
	XG$i2c_read_and_stop$0$0 ==.
	ret
;------------------------------------------------------------
;Allocation info for local variables in function 'i2c_write_data'
;------------------------------------------------------------
;start_reg                 Allocated with name '_i2c_write_data_PARM_2'
;buffer                    Allocated with name '_i2c_write_data_PARM_3'
;num_bytes                 Allocated with name '_i2c_write_data_PARM_4'
;addr                      Allocated to registers r7 
;i                         Allocated to registers 
;------------------------------------------------------------
	G$i2c_write_data$0$0 ==.
	C$i2c.h$252$1$104 ==.
;	C:/Program Files/SDCC/bin/../include/mcs51/i2c.h:252: void i2c_write_data(unsigned char addr, unsigned char start_reg, unsigned char *buffer, unsigned char num_bytes)
;	-----------------------------------------
;	 function i2c_write_data
;	-----------------------------------------
_i2c_write_data:
	mov	r7,dpl
	C$i2c.h$256$1$106 ==.
;	C:/Program Files/SDCC/bin/../include/mcs51/i2c.h:256: EA = 0;                     //Don't allow interrupts during I2C work
	clr	_EA
	C$i2c.h$257$1$106 ==.
;	C:/Program Files/SDCC/bin/../include/mcs51/i2c.h:257: i2c_start();                //Initiate I2C transfer
	push	ar7
	lcall	_i2c_start
	pop	ar7
	C$i2c.h$258$1$106 ==.
;	C:/Program Files/SDCC/bin/../include/mcs51/i2c.h:258: i2c_write(addr & ~0x01);    //Write the desired address to the bus
	mov	a,#0xfe
	anl	a,r7
	mov	dpl,a
	lcall	_i2c_write
	C$i2c.h$259$1$106 ==.
;	C:/Program Files/SDCC/bin/../include/mcs51/i2c.h:259: i2c_write(start_reg);       //Write the start register to the bus
	mov	dpl,_i2c_write_data_PARM_2
	lcall	_i2c_write
	C$i2c.h$260$1$106 ==.
;	C:/Program Files/SDCC/bin/../include/mcs51/i2c.h:260: for(i=0; i<num_bytes-1; i++) //Write the data to the register(s)
	mov	r7,#0x00
00103$:
	mov	r5,_i2c_write_data_PARM_4
	mov	r6,#0x00
	dec	r5
	cjne	r5,#0xff,00114$
	dec	r6
00114$:
	mov	ar3,r7
	mov	r4,#0x00
	clr	c
	mov	a,r3
	subb	a,r5
	mov	a,r4
	xrl	a,#0x80
	mov	b,r6
	xrl	b,#0x80
	subb	a,b
	jnc	00101$
	C$i2c.h$261$1$106 ==.
;	C:/Program Files/SDCC/bin/../include/mcs51/i2c.h:261: i2c_write(buffer[i]);
	mov	a,r7
	add	a,_i2c_write_data_PARM_3
	mov	r4,a
	clr	a
	addc	a,(_i2c_write_data_PARM_3 + 1)
	mov	r5,a
	mov	r6,(_i2c_write_data_PARM_3 + 2)
	mov	dpl,r4
	mov	dph,r5
	mov	b,r6
	lcall	__gptrget
	mov	dpl,a
	push	ar7
	lcall	_i2c_write
	pop	ar7
	C$i2c.h$260$1$106 ==.
;	C:/Program Files/SDCC/bin/../include/mcs51/i2c.h:260: for(i=0; i<num_bytes-1; i++) //Write the data to the register(s)
	inc	r7
	sjmp	00103$
00101$:
	C$i2c.h$262$1$106 ==.
;	C:/Program Files/SDCC/bin/../include/mcs51/i2c.h:262: i2c_write_and_stop(buffer[num_bytes-1]); //Stop transfer
	mov	r6,_i2c_write_data_PARM_4
	mov	r7,#0x00
	dec	r6
	cjne	r6,#0xff,00116$
	dec	r7
00116$:
	mov	a,r6
	add	a,_i2c_write_data_PARM_3
	mov	r6,a
	mov	a,r7
	addc	a,(_i2c_write_data_PARM_3 + 1)
	mov	r7,a
	mov	r5,(_i2c_write_data_PARM_3 + 2)
	mov	dpl,r6
	mov	dph,r7
	mov	b,r5
	lcall	__gptrget
	mov	dpl,a
	lcall	_i2c_write_and_stop
	C$i2c.h$263$1$106 ==.
;	C:/Program Files/SDCC/bin/../include/mcs51/i2c.h:263: EA = 1;                     //Re-Enable interrupts
	setb	_EA
	C$i2c.h$264$1$106 ==.
	XG$i2c_write_data$0$0 ==.
	ret
;------------------------------------------------------------
;Allocation info for local variables in function 'i2c_read_data'
;------------------------------------------------------------
;start_reg                 Allocated with name '_i2c_read_data_PARM_2'
;buffer                    Allocated with name '_i2c_read_data_PARM_3'
;num_bytes                 Allocated with name '_i2c_read_data_PARM_4'
;addr                      Allocated to registers r7 
;j                         Allocated to registers 
;------------------------------------------------------------
	G$i2c_read_data$0$0 ==.
	C$i2c.h$267$1$106 ==.
;	C:/Program Files/SDCC/bin/../include/mcs51/i2c.h:267: void i2c_read_data(unsigned char addr, unsigned char start_reg, unsigned char *buffer, unsigned char num_bytes)
;	-----------------------------------------
;	 function i2c_read_data
;	-----------------------------------------
_i2c_read_data:
	mov	r7,dpl
	C$i2c.h$271$1$108 ==.
;	C:/Program Files/SDCC/bin/../include/mcs51/i2c.h:271: EA = 0;                     //Don't allow interrupts during I2C work
	clr	_EA
	C$i2c.h$272$1$108 ==.
;	C:/Program Files/SDCC/bin/../include/mcs51/i2c.h:272: i2c_start();                //Start I2C transfer
	push	ar7
	lcall	_i2c_start
	pop	ar7
	C$i2c.h$273$1$108 ==.
;	C:/Program Files/SDCC/bin/../include/mcs51/i2c.h:273: i2c_write(addr & ~0x01);    //Write address of device that will be written to, send 0
	mov	a,#0xfe
	anl	a,r7
	mov	dpl,a
	push	ar7
	lcall	_i2c_write
	C$i2c.h$274$1$108 ==.
;	C:/Program Files/SDCC/bin/../include/mcs51/i2c.h:274: i2c_write_and_stop(start_reg); //Write & stop the 1st register to be read
	mov	dpl,_i2c_read_data_PARM_2
	lcall	_i2c_write_and_stop
	C$i2c.h$275$1$108 ==.
;	C:/Program Files/SDCC/bin/../include/mcs51/i2c.h:275: i2c_start();                //Start I2C transfer
	lcall	_i2c_start
	pop	ar7
	C$i2c.h$276$1$108 ==.
;	C:/Program Files/SDCC/bin/../include/mcs51/i2c.h:276: i2c_write(addr | 0x01);     //Write address again, this time indicating a read operation
	mov	a,#0x01
	orl	a,r7
	mov	dpl,a
	lcall	_i2c_write
	C$i2c.h$277$1$108 ==.
;	C:/Program Files/SDCC/bin/../include/mcs51/i2c.h:277: for(j = 0; j < num_bytes - 1; j++)
	mov	r7,#0x00
00103$:
	mov	r5,_i2c_read_data_PARM_4
	mov	r6,#0x00
	dec	r5
	cjne	r5,#0xff,00114$
	dec	r6
00114$:
	mov	ar3,r7
	mov	r4,#0x00
	clr	c
	mov	a,r3
	subb	a,r5
	mov	a,r4
	xrl	a,#0x80
	mov	b,r6
	xrl	b,#0x80
	subb	a,b
	jnc	00101$
	C$i2c.h$279$2$109 ==.
;	C:/Program Files/SDCC/bin/../include/mcs51/i2c.h:279: AA = 1;                 //Set acknowledge bit
	setb	_AA
	C$i2c.h$280$2$109 ==.
;	C:/Program Files/SDCC/bin/../include/mcs51/i2c.h:280: buffer[j] = i2c_read(); //Read data, save it in buffer
	mov	a,r7
	add	a,_i2c_read_data_PARM_3
	mov	r4,a
	clr	a
	addc	a,(_i2c_read_data_PARM_3 + 1)
	mov	r5,a
	mov	r6,(_i2c_read_data_PARM_3 + 2)
	push	ar7
	push	ar6
	push	ar5
	push	ar4
	lcall	_i2c_read
	mov	r3,dpl
	pop	ar4
	pop	ar5
	pop	ar6
	pop	ar7
	mov	dpl,r4
	mov	dph,r5
	mov	b,r6
	mov	a,r3
	lcall	__gptrput
	C$i2c.h$277$1$108 ==.
;	C:/Program Files/SDCC/bin/../include/mcs51/i2c.h:277: for(j = 0; j < num_bytes - 1; j++)
	inc	r7
	sjmp	00103$
00101$:
	C$i2c.h$282$1$108 ==.
;	C:/Program Files/SDCC/bin/../include/mcs51/i2c.h:282: AA = 0;
	clr	_AA
	C$i2c.h$283$1$108 ==.
;	C:/Program Files/SDCC/bin/../include/mcs51/i2c.h:283: buffer[num_bytes - 1] = i2c_read_and_stop(); //Read the last byte and stop, save it in the buffer
	mov	r6,_i2c_read_data_PARM_4
	mov	r7,#0x00
	dec	r6
	cjne	r6,#0xff,00116$
	dec	r7
00116$:
	mov	a,r6
	add	a,_i2c_read_data_PARM_3
	mov	r6,a
	mov	a,r7
	addc	a,(_i2c_read_data_PARM_3 + 1)
	mov	r7,a
	mov	r5,(_i2c_read_data_PARM_3 + 2)
	push	ar7
	push	ar6
	push	ar5
	lcall	_i2c_read_and_stop
	mov	r4,dpl
	pop	ar5
	pop	ar6
	pop	ar7
	mov	dpl,r6
	mov	dph,r7
	mov	b,r5
	mov	a,r4
	lcall	__gptrput
	C$i2c.h$284$1$108 ==.
;	C:/Program Files/SDCC/bin/../include/mcs51/i2c.h:284: EA = 1;                     //Re-Enable interrupts
	setb	_EA
	C$i2c.h$285$1$108 ==.
	XG$i2c_read_data$0$0 ==.
	ret
;------------------------------------------------------------
;Allocation info for local variables in function 'Accel_Init'
;------------------------------------------------------------
	G$Accel_Init$0$0 ==.
	C$i2c.h$294$1$108 ==.
;	C:/Program Files/SDCC/bin/../include/mcs51/i2c.h:294: void Accel_Init(void)
;	-----------------------------------------
;	 function Accel_Init
;	-----------------------------------------
_Accel_Init:
	C$i2c.h$298$1$111 ==.
;	C:/Program Files/SDCC/bin/../include/mcs51/i2c.h:298: Data2[0]=0x23;  //normal power mode, 50Hz ODR, y & x axes enabled
	mov	_Data2,#0x23
	C$i2c.h$300$1$111 ==.
;	C:/Program Files/SDCC/bin/../include/mcs51/i2c.h:300: Data2[1]=0x00;  //default - no filtering
	mov	(_Data2 + 0x0001),#0x00
	C$i2c.h$301$1$111 ==.
;	C:/Program Files/SDCC/bin/../include/mcs51/i2c.h:301: Data2[1]=0x10;  //filtered data selected, HPF = 1.0->0.125Hz
	mov	(_Data2 + 0x0001),#0x10
	C$i2c.h$302$1$111 ==.
;	C:/Program Files/SDCC/bin/../include/mcs51/i2c.h:302: Data2[2]=0x00;  //default - no interrupts enabled
	mov	(_Data2 + 0x0002),#0x00
	C$i2c.h$304$1$111 ==.
;	C:/Program Files/SDCC/bin/../include/mcs51/i2c.h:304: i2c_write_data(addr_accel, 0x20, Data2, 1);
	mov	_i2c_write_data_PARM_3,#_Data2
	mov	(_i2c_write_data_PARM_3 + 1),#0x00
	mov	(_i2c_write_data_PARM_3 + 2),#0x40
	mov	_i2c_write_data_PARM_2,#0x20
	mov	_i2c_write_data_PARM_4,#0x01
	mov	dpl,#0x30
	lcall	_i2c_write_data
	C$i2c.h$310$1$111 ==.
	XG$Accel_Init$0$0 ==.
	ret
;------------------------------------------------------------
;Allocation info for local variables in function 'Accel_Init_C'
;------------------------------------------------------------
	G$Accel_Init_C$0$0 ==.
	C$i2c.h$313$1$111 ==.
;	C:/Program Files/SDCC/bin/../include/mcs51/i2c.h:313: void Accel_Init_C(void)
;	-----------------------------------------
;	 function Accel_Init_C
;	-----------------------------------------
_Accel_Init_C:
	C$i2c.h$318$1$113 ==.
;	C:/Program Files/SDCC/bin/../include/mcs51/i2c.h:318: Data2[0]=0x04;  //set register address auto increment bit
	mov	_Data2,#0x04
	C$i2c.h$319$1$113 ==.
;	C:/Program Files/SDCC/bin/../include/mcs51/i2c.h:319: i2c_write_data(addr_accelC, 0x23, Data2, 1);
	mov	_i2c_write_data_PARM_3,#_Data2
	mov	(_i2c_write_data_PARM_3 + 1),#0x00
	mov	(_i2c_write_data_PARM_3 + 2),#0x40
	mov	_i2c_write_data_PARM_2,#0x23
	mov	_i2c_write_data_PARM_4,#0x01
	mov	dpl,#0x3a
	lcall	_i2c_write_data
	C$i2c.h$321$1$113 ==.
;	C:/Program Files/SDCC/bin/../include/mcs51/i2c.h:321: Data2[0]=0x6B;  //R20 normal power mode, 800Hz ODR, y & x axes enabled
	mov	_Data2,#0x6b
	C$i2c.h$323$1$113 ==.
;	C:/Program Files/SDCC/bin/../include/mcs51/i2c.h:323: Data2[1]=0x00;  //R21 Default - no HP filtering
	mov	(_Data2 + 0x0001),#0x00
	C$i2c.h$325$1$113 ==.
;	C:/Program Files/SDCC/bin/../include/mcs51/i2c.h:325: Data2[2]=0x00;  //R22 Default - no interrupts enabled
	mov	(_Data2 + 0x0002),#0x00
	C$i2c.h$326$1$113 ==.
;	C:/Program Files/SDCC/bin/../include/mcs51/i2c.h:326: i2c_write_data(addr_accelC, 0x20, Data2, 1);
	mov	_i2c_write_data_PARM_3,#_Data2
	mov	(_i2c_write_data_PARM_3 + 1),#0x00
	mov	(_i2c_write_data_PARM_3 + 2),#0x40
	mov	_i2c_write_data_PARM_2,#0x20
	mov	_i2c_write_data_PARM_4,#0x01
	mov	dpl,#0x3a
	lcall	_i2c_write_data
	C$i2c.h$328$1$113 ==.
	XG$Accel_Init_C$0$0 ==.
	ret
;------------------------------------------------------------
;Allocation info for local variables in function 'main'
;------------------------------------------------------------
;run_stop                  Allocated to registers r7 
;keypad                    Allocated to registers r6 
;------------------------------------------------------------
	G$main$0$0 ==.
	C$lab_5.c$65$1$113 ==.
;	C:\Users\gerlig\Documents\School\LITEC\LAB5\lab-5.c:65: void main(void)
;	-----------------------------------------
;	 function main
;	-----------------------------------------
_main:
	C$lab_5.c$68$1$132 ==.
;	C:\Users\gerlig\Documents\School\LITEC\LAB5\lab-5.c:68: Sys_Init(); // initialize board
	lcall	_Sys_Init
	C$lab_5.c$69$1$132 ==.
;	C:\Users\gerlig\Documents\School\LITEC\LAB5\lab-5.c:69: putchar(' ');
	mov	dpl,#0x20
	lcall	_putchar
	C$lab_5.c$70$1$132 ==.
;	C:\Users\gerlig\Documents\School\LITEC\LAB5\lab-5.c:70: Port_Init();
	lcall	_Port_Init
	C$lab_5.c$71$1$132 ==.
;	C:\Users\gerlig\Documents\School\LITEC\LAB5\lab-5.c:71: PCA_Init();
	lcall	_PCA_Init
	C$lab_5.c$72$1$132 ==.
;	C:\Users\gerlig\Documents\School\LITEC\LAB5\lab-5.c:72: SMB_Init();
	lcall	_SMB_Init
	C$lab_5.c$73$1$132 ==.
;	C:\Users\gerlig\Documents\School\LITEC\LAB5\lab-5.c:73: XBR0_Init();
	lcall	_XBR0_Init
	C$lab_5.c$74$1$132 ==.
;	C:\Users\gerlig\Documents\School\LITEC\LAB5\lab-5.c:74: ADC_Init();
	lcall	_ADC_Init
	C$lab_5.c$75$1$132 ==.
;	C:\Users\gerlig\Documents\School\LITEC\LAB5\lab-5.c:75: Accel_Init_C();
	lcall	_Accel_Init_C
	C$lab_5.c$76$1$132 ==.
;	C:\Users\gerlig\Documents\School\LITEC\LAB5\lab-5.c:76: a_count = 0;
	mov	_a_count,#0x00
	C$lab_5.c$77$1$132 ==.
;	C:\Users\gerlig\Documents\School\LITEC\LAB5\lab-5.c:77: lcd_count = 0;
	mov	_lcd_count,#0x00
	C$lab_5.c$79$1$132 ==.
;	C:\Users\gerlig\Documents\School\LITEC\LAB5\lab-5.c:79: run_stop = 0;
	mov	r7,#0x00
	C$lab_5.c$85$2$133 ==.
;	C:\Users\gerlig\Documents\School\LITEC\LAB5\lab-5.c:85: while (!run) // make run an sbit for the run/stop switch
00125$:
	jnb	_run,00244$
	ljmp	00127$
00244$:
	C$lab_5.c$87$3$134 ==.
;	C:\Users\gerlig\Documents\School\LITEC\LAB5\lab-5.c:87: MOTOR_PW = MOTOR_STOP; //put motor in neutral
	mov	_MOTOR_PW,_MOTOR_STOP
	mov	(_MOTOR_PW + 1),(_MOTOR_STOP + 1)
	C$lab_5.c$88$3$134 ==.
;	C:\Users\gerlig\Documents\School\LITEC\LAB5\lab-5.c:88: SERVO_PW = SERVO_CENTER;
	mov	_SERVO_PW,_SERVO_CENTER
	mov	(_SERVO_PW + 1),(_SERVO_CENTER + 1)
	C$lab_5.c$90$3$134 ==.
;	C:\Users\gerlig\Documents\School\LITEC\LAB5\lab-5.c:90: PCA0CP0 = 0xFFFF - SERVO_PW;  //set servos to center while not running
	mov	a,#0xff
	clr	c
	subb	a,_SERVO_PW
	mov	((_PCA0CP0 >> 0) & 0xFF),a
	mov	a,#0xff
	subb	a,(_SERVO_PW + 1)
	mov	((_PCA0CP0 >> 8) & 0xFF),a
	C$lab_5.c$91$3$134 ==.
;	C:\Users\gerlig\Documents\School\LITEC\LAB5\lab-5.c:91: PCA0CP2 = 0xFFFF - MOTOR_PW;  //set motors to center while not running
	mov	a,#0xff
	clr	c
	subb	a,_MOTOR_PW
	mov	((_PCA0CP2 >> 0) & 0xFF),a
	mov	a,#0xff
	subb	a,(_MOTOR_PW + 1)
	mov	((_PCA0CP2 >> 8) & 0xFF),a
	C$lab_5.c$93$3$134 ==.
;	C:\Users\gerlig\Documents\School\LITEC\LAB5\lab-5.c:93: BILED0 = 1;
	setb	_BILED0
	C$lab_5.c$94$3$134 ==.
;	C:\Users\gerlig\Documents\School\LITEC\LAB5\lab-5.c:94: BILED1 = 1;
	setb	_BILED1
	C$lab_5.c$95$3$134 ==.
;	C:\Users\gerlig\Documents\School\LITEC\LAB5\lab-5.c:95: if (run_stop == 0)
	mov	a,r7
	jnz	00125$
	C$lab_5.c$98$4$135 ==.
;	C:\Users\gerlig\Documents\School\LITEC\LAB5\lab-5.c:98: lcd_clear();
	lcall	_lcd_clear
	C$lab_5.c$99$4$135 ==.
;	C:\Users\gerlig\Documents\School\LITEC\LAB5\lab-5.c:99: lcd_print("Please put me\non a flat\nsurface! Then\npress 1");
	mov	a,#___str_3
	push	acc
	mov	a,#(___str_3 >> 8)
	push	acc
	mov	a,#0x80
	push	acc
	lcall	_lcd_print
	dec	sp
	dec	sp
	dec	sp
	C$lab_5.c$101$4$135 ==.
;	C:\Users\gerlig\Documents\School\LITEC\LAB5\lab-5.c:101: while (1) {
00109$:
	C$lab_5.c$102$5$136 ==.
;	C:\Users\gerlig\Documents\School\LITEC\LAB5\lab-5.c:102: keypad = read_keypad();
	lcall	_read_keypad
	mov	r6,dpl
	C$lab_5.c$103$5$136 ==.
;	C:\Users\gerlig\Documents\School\LITEC\LAB5\lab-5.c:103: pause();    // This pauses for 1 PCA0 counter clock cycle (20ms)
	push	ar6
	lcall	_pause
	pop	ar6
	C$lab_5.c$106$5$136 ==.
;	C:\Users\gerlig\Documents\School\LITEC\LAB5\lab-5.c:106: if (keypad != 0xFF) {
	cjne	r6,#0xff,00246$
	sjmp	00109$
00246$:
	C$lab_5.c$107$6$137 ==.
;	C:\Users\gerlig\Documents\School\LITEC\LAB5\lab-5.c:107: while (read_keypad() != 0xFF);
00101$:
	push	ar6
	lcall	_read_keypad
	mov	r5,dpl
	pop	ar6
	cjne	r5,#0xff,00101$
	C$lab_5.c$108$6$137 ==.
;	C:\Users\gerlig\Documents\School\LITEC\LAB5\lab-5.c:108: lcd_clear();
	push	ar6
	lcall	_lcd_clear
	pop	ar6
	C$lab_5.c$109$6$137 ==.
;	C:\Users\gerlig\Documents\School\LITEC\LAB5\lab-5.c:109: if (keypad == 0x31) { //if they enter a 1
	cjne	r6,#0x31,00109$
	C$lab_5.c$110$7$138 ==.
;	C:\Users\gerlig\Documents\School\LITEC\LAB5\lab-5.c:110: lcd_clear();
	lcall	_lcd_clear
	C$lab_5.c$111$7$138 ==.
;	C:\Users\gerlig\Documents\School\LITEC\LAB5\lab-5.c:111: lcd_print("Calibrated!");
	mov	a,#___str_4
	push	acc
	mov	a,#(___str_4 >> 8)
	push	acc
	mov	a,#0x80
	push	acc
	lcall	_lcd_print
	dec	sp
	dec	sp
	dec	sp
	C$lab_5.c$112$7$138 ==.
;	C:\Users\gerlig\Documents\School\LITEC\LAB5\lab-5.c:112: wait();
	lcall	_wait
	C$lab_5.c$117$4$135 ==.
;	C:\Users\gerlig\Documents\School\LITEC\LAB5\lab-5.c:117: calibration();
	lcall	_calibration
	C$lab_5.c$118$4$135 ==.
;	C:\Users\gerlig\Documents\School\LITEC\LAB5\lab-5.c:118: printf("X0: %i, Y0: %i", x0, y0);
	push	_y0
	push	(_y0 + 1)
	push	_x0
	push	(_x0 + 1)
	mov	a,#___str_5
	push	acc
	mov	a,#(___str_5 >> 8)
	push	acc
	mov	a,#0x80
	push	acc
	lcall	_printf
	mov	a,sp
	add	a,#0xf9
	mov	sp,a
	C$lab_5.c$119$4$135 ==.
;	C:\Users\gerlig\Documents\School\LITEC\LAB5\lab-5.c:119: set_gains(); // function adjusting feedback gains
	lcall	_set_gains
	C$lab_5.c$120$4$135 ==.
;	C:\Users\gerlig\Documents\School\LITEC\LAB5\lab-5.c:120: lcd_clear();
	lcall	_lcd_clear
	C$lab_5.c$121$4$135 ==.
;	C:\Users\gerlig\Documents\School\LITEC\LAB5\lab-5.c:121: lcd_print("1: Right\n2: Left");
	mov	a,#___str_6
	push	acc
	mov	a,#(___str_6 >> 8)
	push	acc
	mov	a,#0x80
	push	acc
	lcall	_lcd_print
	dec	sp
	dec	sp
	dec	sp
	C$lab_5.c$122$4$135 ==.
;	C:\Users\gerlig\Documents\School\LITEC\LAB5\lab-5.c:122: while (1) {
00121$:
	C$lab_5.c$123$5$139 ==.
;	C:\Users\gerlig\Documents\School\LITEC\LAB5\lab-5.c:123: keypad = read_keypad();
	lcall	_read_keypad
	mov	r6,dpl
	C$lab_5.c$124$5$139 ==.
;	C:\Users\gerlig\Documents\School\LITEC\LAB5\lab-5.c:124: pause();    // This pauses for 1 PCA0 counter clock cycle (20ms)
	push	ar6
	lcall	_pause
	pop	ar6
	C$lab_5.c$127$5$139 ==.
;	C:\Users\gerlig\Documents\School\LITEC\LAB5\lab-5.c:127: if (keypad != 0xFF) {
	cjne	r6,#0xff,00251$
	sjmp	00121$
00251$:
	C$lab_5.c$128$6$140 ==.
;	C:\Users\gerlig\Documents\School\LITEC\LAB5\lab-5.c:128: while (read_keypad() != 0xFF);
00111$:
	push	ar6
	lcall	_read_keypad
	mov	r5,dpl
	pop	ar6
	cjne	r5,#0xff,00111$
	C$lab_5.c$129$6$140 ==.
;	C:\Users\gerlig\Documents\School\LITEC\LAB5\lab-5.c:129: lcd_clear();
	push	ar6
	lcall	_lcd_clear
	pop	ar6
	C$lab_5.c$130$6$140 ==.
;	C:\Users\gerlig\Documents\School\LITEC\LAB5\lab-5.c:130: if (keypad == 0x31) { //if they enter a 1
	cjne	r6,#0x31,00115$
	C$lab_5.c$131$7$141 ==.
;	C:\Users\gerlig\Documents\School\LITEC\LAB5\lab-5.c:131: lcd_clear();
	lcall	_lcd_clear
	C$lab_5.c$132$7$141 ==.
;	C:\Users\gerlig\Documents\School\LITEC\LAB5\lab-5.c:132: lcd_print("Right");
	mov	a,#___str_7
	push	acc
	mov	a,#(___str_7 >> 8)
	push	acc
	mov	a,#0x80
	push	acc
	lcall	_lcd_print
	dec	sp
	dec	sp
	dec	sp
	C$lab_5.c$133$7$141 ==.
;	C:\Users\gerlig\Documents\School\LITEC\LAB5\lab-5.c:133: direction = 1;
	mov	_direction,#0x01
	C$lab_5.c$134$7$141 ==.
;	C:\Users\gerlig\Documents\School\LITEC\LAB5\lab-5.c:134: SERVO_PW = SERVO_LEFT;
	mov	_SERVO_PW,_SERVO_LEFT
	mov	(_SERVO_PW + 1),(_SERVO_LEFT + 1)
	C$lab_5.c$135$7$141 ==.
;	C:\Users\gerlig\Documents\School\LITEC\LAB5\lab-5.c:135: PCA0CP0 = 0xFFFF - SERVO_PW;
	mov	a,#0xff
	clr	c
	subb	a,_SERVO_PW
	mov	((_PCA0CP0 >> 0) & 0xFF),a
	mov	a,#0xff
	subb	a,(_SERVO_PW + 1)
	mov	((_PCA0CP0 >> 8) & 0xFF),a
	C$lab_5.c$136$7$141 ==.
;	C:\Users\gerlig\Documents\School\LITEC\LAB5\lab-5.c:136: wait();
	lcall	_wait
	C$lab_5.c$137$7$141 ==.
;	C:\Users\gerlig\Documents\School\LITEC\LAB5\lab-5.c:137: break;
	sjmp	00122$
00115$:
	C$lab_5.c$139$6$140 ==.
;	C:\Users\gerlig\Documents\School\LITEC\LAB5\lab-5.c:139: if (keypad == 0x32) { //if they enter a 2
	cjne	r6,#0x32,00121$
	C$lab_5.c$140$7$142 ==.
;	C:\Users\gerlig\Documents\School\LITEC\LAB5\lab-5.c:140: lcd_clear();
	lcall	_lcd_clear
	C$lab_5.c$141$7$142 ==.
;	C:\Users\gerlig\Documents\School\LITEC\LAB5\lab-5.c:141: lcd_print("Left");
	mov	a,#___str_8
	push	acc
	mov	a,#(___str_8 >> 8)
	push	acc
	mov	a,#0x80
	push	acc
	lcall	_lcd_print
	dec	sp
	dec	sp
	dec	sp
	C$lab_5.c$142$7$142 ==.
;	C:\Users\gerlig\Documents\School\LITEC\LAB5\lab-5.c:142: SERVO_PW = SERVO_RIGHT; //just prep the motors so they turn in place now
	mov	_SERVO_PW,_SERVO_RIGHT
	mov	(_SERVO_PW + 1),(_SERVO_RIGHT + 1)
	C$lab_5.c$143$7$142 ==.
;	C:\Users\gerlig\Documents\School\LITEC\LAB5\lab-5.c:143: PCA0CP0 = 0xFFFF - SERVO_PW;
	mov	a,#0xff
	clr	c
	subb	a,_SERVO_PW
	mov	((_PCA0CP0 >> 0) & 0xFF),a
	mov	a,#0xff
	subb	a,(_SERVO_PW + 1)
	mov	((_PCA0CP0 >> 8) & 0xFF),a
	C$lab_5.c$144$7$142 ==.
;	C:\Users\gerlig\Documents\School\LITEC\LAB5\lab-5.c:144: direction = 2;
	mov	_direction,#0x02
	C$lab_5.c$145$7$142 ==.
;	C:\Users\gerlig\Documents\School\LITEC\LAB5\lab-5.c:145: wait();
	lcall	_wait
	C$lab_5.c$146$4$135 ==.
;	C:\Users\gerlig\Documents\School\LITEC\LAB5\lab-5.c:146: break;
00122$:
	C$lab_5.c$150$4$135 ==.
;	C:\Users\gerlig\Documents\School\LITEC\LAB5\lab-5.c:150: run_stop = 1; // only try to update once
	mov	r7,#0x01
	ljmp	00125$
00127$:
	C$lab_5.c$154$2$133 ==.
;	C:\Users\gerlig\Documents\School\LITEC\LAB5\lab-5.c:154: if (MOTOR_PW > MOTOR_STOP) {
	clr	c
	mov	a,_MOTOR_STOP
	subb	a,_MOTOR_PW
	mov	a,(_MOTOR_STOP + 1)
	subb	a,(_MOTOR_PW + 1)
	jnc	00129$
	C$lab_5.c$155$3$143 ==.
;	C:\Users\gerlig\Documents\School\LITEC\LAB5\lab-5.c:155: BILED1 = 0;
	clr	_BILED1
	C$lab_5.c$156$3$143 ==.
;	C:\Users\gerlig\Documents\School\LITEC\LAB5\lab-5.c:156: BILED0 = 1;
	setb	_BILED0
00129$:
	C$lab_5.c$158$2$133 ==.
;	C:\Users\gerlig\Documents\School\LITEC\LAB5\lab-5.c:158: if (MOTOR_PW < MOTOR_STOP) {
	clr	c
	mov	a,_MOTOR_PW
	subb	a,_MOTOR_STOP
	mov	a,(_MOTOR_PW + 1)
	subb	a,(_MOTOR_STOP + 1)
	jnc	00131$
	C$lab_5.c$159$3$144 ==.
;	C:\Users\gerlig\Documents\School\LITEC\LAB5\lab-5.c:159: BILED1 = 1;
	setb	_BILED1
	C$lab_5.c$160$3$144 ==.
;	C:\Users\gerlig\Documents\School\LITEC\LAB5\lab-5.c:160: BILED0 = 0;
	clr	_BILED0
00131$:
	C$lab_5.c$162$2$133 ==.
;	C:\Users\gerlig\Documents\School\LITEC\LAB5\lab-5.c:162: if (MOTOR_PW == MOTOR_STOP) {
	mov	a,_MOTOR_STOP
	cjne	a,_MOTOR_PW,00133$
	mov	a,(_MOTOR_STOP + 1)
	cjne	a,(_MOTOR_PW + 1),00133$
	C$lab_5.c$163$3$145 ==.
;	C:\Users\gerlig\Documents\School\LITEC\LAB5\lab-5.c:163: BILED1 = 0;
	clr	_BILED1
	C$lab_5.c$164$3$145 ==.
;	C:\Users\gerlig\Documents\School\LITEC\LAB5\lab-5.c:164: BILED0 = 0;
	clr	_BILED0
00133$:
	C$lab_5.c$167$2$133 ==.
;	C:\Users\gerlig\Documents\School\LITEC\LAB5\lab-5.c:167: if (new_accel) // enough overflows for a new reading
	mov	a,_new_accel
	jnz	00262$
	ljmp	00155$
00262$:
	C$lab_5.c$169$3$146 ==.
;	C:\Users\gerlig\Documents\School\LITEC\LAB5\lab-5.c:169: read_accels();
	push	ar7
	lcall	_read_accels
	pop	ar7
	C$lab_5.c$170$3$146 ==.
;	C:\Users\gerlig\Documents\School\LITEC\LAB5\lab-5.c:170: if(((gy < 10) && (gy > -10)) && (levelflag)) { //checking for level ground
	clr	c
	mov	a,_gy
	subb	a,#0x0a
	mov	a,(_gy + 1)
	xrl	a,#0x80
	subb	a,#0x80
	jnc	00137$
	clr	c
	mov	a,#0xf6
	subb	a,_gy
	mov	a,#(0xff ^ 0x80)
	mov	b,(_gy + 1)
	xrl	b,#0x80
	subb	a,b
	jnc	00137$
	mov	a,_levelflag
	jz	00137$
	C$lab_5.c$171$4$147 ==.
;	C:\Users\gerlig\Documents\School\LITEC\LAB5\lab-5.c:171: levelflag ++;
	inc	_levelflag
	sjmp	00138$
00137$:
	C$lab_5.c$173$3$146 ==.
;	C:\Users\gerlig\Documents\School\LITEC\LAB5\lab-5.c:173: else if (levelflag) {
	mov	a,_levelflag
	jz	00138$
	C$lab_5.c$174$4$148 ==.
;	C:\Users\gerlig\Documents\School\LITEC\LAB5\lab-5.c:174: levelflag = 1;
	mov	_levelflag,#0x01
00138$:
	C$lab_5.c$177$3$146 ==.
;	C:\Users\gerlig\Documents\School\LITEC\LAB5\lab-5.c:177: if (levelflag > 5) {
	mov	a,_levelflag
	add	a,#0xff - 0x05
	jnc	00142$
	C$lab_5.c$178$4$149 ==.
;	C:\Users\gerlig\Documents\School\LITEC\LAB5\lab-5.c:178: levelflag = 0;
	mov	_levelflag,#0x00
00142$:
	C$lab_5.c$181$3$146 ==.
;	C:\Users\gerlig\Documents\School\LITEC\LAB5\lab-5.c:181: if (levelflag) { //manual reverse
	mov	a,_levelflag
	jnz	00268$
	ljmp	00152$
00268$:
	C$lab_5.c$182$4$150 ==.
;	C:\Users\gerlig\Documents\School\LITEC\LAB5\lab-5.c:182: if (direction == 1) { //this is right
	mov	a,#0x01
	cjne	a,_direction,00146$
	C$lab_5.c$183$5$151 ==.
;	C:\Users\gerlig\Documents\School\LITEC\LAB5\lab-5.c:183: SERVO_PW = SERVO_LEFT; //reversed because of control setup
	mov	_SERVO_PW,_SERVO_LEFT
	mov	(_SERVO_PW + 1),(_SERVO_LEFT + 1)
	C$lab_5.c$184$5$151 ==.
;	C:\Users\gerlig\Documents\School\LITEC\LAB5\lab-5.c:184: PCA0CP0 = 0xFFFF - SERVO_PW;
	mov	a,#0xff
	clr	c
	subb	a,_SERVO_PW
	mov	((_PCA0CP0 >> 0) & 0xFF),a
	mov	a,#0xff
	subb	a,(_SERVO_PW + 1)
	mov	((_PCA0CP0 >> 8) & 0xFF),a
	C$lab_5.c$185$5$151 ==.
;	C:\Users\gerlig\Documents\School\LITEC\LAB5\lab-5.c:185: kdy = read_AD_input(4, 50); //get potentiometer read to adjust speed
	mov	_read_AD_input_PARM_2,#0x32
	mov	dpl,#0x04
	push	ar7
	lcall	_read_AD_input
	mov	_kdy,dpl
	pop	ar7
	C$lab_5.c$186$5$151 ==.
;	C:\Users\gerlig\Documents\School\LITEC\LAB5\lab-5.c:186: MOTOR_PW = MOTOR_STOP - (kdy * 18);
	mov	a,_kdy
	mov	b,#0x12
	mul	ab
	mov	r5,a
	mov	r6,b
	mov	a,_MOTOR_STOP
	clr	c
	subb	a,r5
	mov	_MOTOR_PW,a
	mov	a,(_MOTOR_STOP + 1)
	subb	a,r6
	mov	(_MOTOR_PW + 1),a
	C$lab_5.c$187$5$151 ==.
;	C:\Users\gerlig\Documents\School\LITEC\LAB5\lab-5.c:187: if (MOTOR_PW < MOTOR_MIN) {
	clr	c
	mov	a,_MOTOR_PW
	subb	a,_MOTOR_MIN
	mov	a,(_MOTOR_PW + 1)
	subb	a,(_MOTOR_MIN + 1)
	jnc	00144$
	C$lab_5.c$188$6$152 ==.
;	C:\Users\gerlig\Documents\School\LITEC\LAB5\lab-5.c:188: MOTOR_PW = MOTOR_MIN;
	mov	_MOTOR_PW,_MOTOR_MIN
	mov	(_MOTOR_PW + 1),(_MOTOR_MIN + 1)
00144$:
	C$lab_5.c$190$5$151 ==.
;	C:\Users\gerlig\Documents\School\LITEC\LAB5\lab-5.c:190: PCA0CP2 = 0xFFFF - MOTOR_PW;
	mov	a,#0xff
	clr	c
	subb	a,_MOTOR_PW
	mov	((_PCA0CP2 >> 0) & 0xFF),a
	mov	a,#0xff
	subb	a,(_MOTOR_PW + 1)
	mov	((_PCA0CP2 >> 8) & 0xFF),a
00146$:
	C$lab_5.c$193$4$150 ==.
;	C:\Users\gerlig\Documents\School\LITEC\LAB5\lab-5.c:193: if (direction == 2) { //this is left
	mov	a,#0x02
	cjne	a,_direction,00155$
	C$lab_5.c$194$5$153 ==.
;	C:\Users\gerlig\Documents\School\LITEC\LAB5\lab-5.c:194: SERVO_PW = SERVO_RIGHT; //reversed because of control setup
	mov	_SERVO_PW,_SERVO_RIGHT
	mov	(_SERVO_PW + 1),(_SERVO_RIGHT + 1)
	C$lab_5.c$195$5$153 ==.
;	C:\Users\gerlig\Documents\School\LITEC\LAB5\lab-5.c:195: PCA0CP0 = 0xFFFF - SERVO_PW;
	mov	a,#0xff
	clr	c
	subb	a,_SERVO_PW
	mov	((_PCA0CP0 >> 0) & 0xFF),a
	mov	a,#0xff
	subb	a,(_SERVO_PW + 1)
	mov	((_PCA0CP0 >> 8) & 0xFF),a
	C$lab_5.c$196$5$153 ==.
;	C:\Users\gerlig\Documents\School\LITEC\LAB5\lab-5.c:196: kdy = read_AD_input(4, 50); //get potentiometer read to adjust speed
	mov	_read_AD_input_PARM_2,#0x32
	mov	dpl,#0x04
	push	ar7
	lcall	_read_AD_input
	mov	_kdy,dpl
	pop	ar7
	C$lab_5.c$197$5$153 ==.
;	C:\Users\gerlig\Documents\School\LITEC\LAB5\lab-5.c:197: MOTOR_PW = MOTOR_STOP - (kdy * 18);
	mov	a,_kdy
	mov	b,#0x12
	mul	ab
	mov	r5,a
	mov	r6,b
	mov	a,_MOTOR_STOP
	clr	c
	subb	a,r5
	mov	_MOTOR_PW,a
	mov	a,(_MOTOR_STOP + 1)
	subb	a,r6
	mov	(_MOTOR_PW + 1),a
	C$lab_5.c$198$5$153 ==.
;	C:\Users\gerlig\Documents\School\LITEC\LAB5\lab-5.c:198: if (MOTOR_PW < MOTOR_MIN) {
	clr	c
	mov	a,_MOTOR_PW
	subb	a,_MOTOR_MIN
	mov	a,(_MOTOR_PW + 1)
	subb	a,(_MOTOR_MIN + 1)
	jnc	00148$
	C$lab_5.c$199$6$154 ==.
;	C:\Users\gerlig\Documents\School\LITEC\LAB5\lab-5.c:199: MOTOR_PW = MOTOR_MIN;
	mov	_MOTOR_PW,_MOTOR_MIN
	mov	(_MOTOR_PW + 1),(_MOTOR_MIN + 1)
00148$:
	C$lab_5.c$201$5$153 ==.
;	C:\Users\gerlig\Documents\School\LITEC\LAB5\lab-5.c:201: PCA0CP2 = 0xFFFF - MOTOR_PW;					
	mov	a,#0xff
	clr	c
	subb	a,_MOTOR_PW
	mov	((_PCA0CP2 >> 0) & 0xFF),a
	mov	a,#0xff
	subb	a,(_MOTOR_PW + 1)
	mov	((_PCA0CP2 >> 8) & 0xFF),a
	sjmp	00155$
00152$:
	C$lab_5.c$206$4$155 ==.
;	C:\Users\gerlig\Documents\School\LITEC\LAB5\lab-5.c:206: set_servo_PWM(); // set the servo PWM
	push	ar7
	lcall	_set_servo_PWM
	C$lab_5.c$207$4$155 ==.
;	C:\Users\gerlig\Documents\School\LITEC\LAB5\lab-5.c:207: set_drive_PWM(); // set drive PWM
	lcall	_set_drive_PWM
	pop	ar7
	C$lab_5.c$208$4$155 ==.
;	C:\Users\gerlig\Documents\School\LITEC\LAB5\lab-5.c:208: new_accel = 0;
	mov	_new_accel,#0x00
	C$lab_5.c$209$4$155 ==.
;	C:\Users\gerlig\Documents\School\LITEC\LAB5\lab-5.c:209: a_count = 0;
	mov	_a_count,#0x00
00155$:
	C$lab_5.c$213$2$133 ==.
;	C:\Users\gerlig\Documents\School\LITEC\LAB5\lab-5.c:213: if (new_lcd) // enough overflow to write to LCD
	mov	a,_new_lcd
	jnz	00275$
	ljmp	00125$
00275$:
	C$lab_5.c$215$3$156 ==.
;	C:\Users\gerlig\Documents\School\LITEC\LAB5\lab-5.c:215: lcd_clear();
	push	ar7
	lcall	_lcd_clear
	C$lab_5.c$216$3$156 ==.
;	C:\Users\gerlig\Documents\School\LITEC\LAB5\lab-5.c:216: lcd_print("x: %i y: %i\nDrive: %i Steering: %i", gx, gy, MOTOR_PW, SERVO_PW);
	push	_SERVO_PW
	push	(_SERVO_PW + 1)
	push	_MOTOR_PW
	push	(_MOTOR_PW + 1)
	push	_gy
	push	(_gy + 1)
	push	_gx
	push	(_gx + 1)
	mov	a,#___str_9
	push	acc
	mov	a,#(___str_9 >> 8)
	push	acc
	mov	a,#0x80
	push	acc
	lcall	_lcd_print
	mov	a,sp
	add	a,#0xf5
	mov	sp,a
	C$lab_5.c$217$3$156 ==.
;	C:\Users\gerlig\Documents\School\LITEC\LAB5\lab-5.c:217: printf("%i\t%i\t%i\t%i\r\n", gx, gy, MOTOR_PW, SERVO_PW);
	push	_SERVO_PW
	push	(_SERVO_PW + 1)
	push	_MOTOR_PW
	push	(_MOTOR_PW + 1)
	push	_gy
	push	(_gy + 1)
	push	_gx
	push	(_gx + 1)
	mov	a,#___str_10
	push	acc
	mov	a,#(___str_10 >> 8)
	push	acc
	mov	a,#0x80
	push	acc
	lcall	_printf
	mov	a,sp
	add	a,#0xf5
	mov	sp,a
	pop	ar7
	C$lab_5.c$218$3$156 ==.
;	C:\Users\gerlig\Documents\School\LITEC\LAB5\lab-5.c:218: new_lcd = 0;
	mov	_new_lcd,#0x00
	C$lab_5.c$219$3$156 ==.
;	C:\Users\gerlig\Documents\School\LITEC\LAB5\lab-5.c:219: lcd_count = 0;
	mov	_lcd_count,#0x00
	ljmp	00125$
	C$lab_5.c$223$1$132 ==.
	XG$main$0$0 ==.
	ret
;------------------------------------------------------------
;Allocation info for local variables in function 'PCA_ISR'
;------------------------------------------------------------
	G$PCA_ISR$0$0 ==.
	C$lab_5.c$231$1$132 ==.
;	C:\Users\gerlig\Documents\School\LITEC\LAB5\lab-5.c:231: void PCA_ISR ( void ) __interrupt 9
;	-----------------------------------------
;	 function PCA_ISR
;	-----------------------------------------
_PCA_ISR:
	push	acc
	push	psw
	C$lab_5.c$233$1$158 ==.
;	C:\Users\gerlig\Documents\School\LITEC\LAB5\lab-5.c:233: if (CF)
	C$lab_5.c$235$2$159 ==.
;	C:\Users\gerlig\Documents\School\LITEC\LAB5\lab-5.c:235: CF = 0; // clear overflow indicator
	jbc	_CF,00118$
	sjmp	00106$
00118$:
	C$lab_5.c$236$2$159 ==.
;	C:\Users\gerlig\Documents\School\LITEC\LAB5\lab-5.c:236: a_count++;
	inc	_a_count
	C$lab_5.c$237$2$159 ==.
;	C:\Users\gerlig\Documents\School\LITEC\LAB5\lab-5.c:237: nCounts++;
	inc	_nCounts
	clr	a
	cjne	a,_nCounts,00119$
	inc	(_nCounts + 1)
00119$:
	C$lab_5.c$238$2$159 ==.
;	C:\Users\gerlig\Documents\School\LITEC\LAB5\lab-5.c:238: if(a_count>=4)
	mov	a,#0x100 - 0x04
	add	a,_a_count
	jnc	00102$
	C$lab_5.c$240$3$160 ==.
;	C:\Users\gerlig\Documents\School\LITEC\LAB5\lab-5.c:240: new_accel=1;
	mov	_new_accel,#0x01
	C$lab_5.c$241$3$160 ==.
;	C:\Users\gerlig\Documents\School\LITEC\LAB5\lab-5.c:241: a_count = 0;
	mov	_a_count,#0x00
00102$:
	C$lab_5.c$243$2$159 ==.
;	C:\Users\gerlig\Documents\School\LITEC\LAB5\lab-5.c:243: lcd_count++;
	inc	_lcd_count
	C$lab_5.c$244$2$159 ==.
;	C:\Users\gerlig\Documents\School\LITEC\LAB5\lab-5.c:244: if (lcd_count>=10)
	mov	a,#0x100 - 0x0a
	add	a,_lcd_count
	jnc	00104$
	C$lab_5.c$246$3$161 ==.
;	C:\Users\gerlig\Documents\School\LITEC\LAB5\lab-5.c:246: new_lcd = 1;
	mov	_new_lcd,#0x01
	C$lab_5.c$247$3$161 ==.
;	C:\Users\gerlig\Documents\School\LITEC\LAB5\lab-5.c:247: lcd_count = 0;
	mov	_lcd_count,#0x00
00104$:
	C$lab_5.c$249$2$159 ==.
;	C:\Users\gerlig\Documents\School\LITEC\LAB5\lab-5.c:249: PCA0 = 28671;
	mov	((_PCA0 >> 0) & 0xFF),#0xff
	mov	((_PCA0 >> 8) & 0xFF),#0x6f
00106$:
	C$lab_5.c$252$1$158 ==.
;	C:\Users\gerlig\Documents\School\LITEC\LAB5\lab-5.c:252: PCA0CN &= 0xC0;
	anl	_PCA0CN,#0xc0
	pop	psw
	pop	acc
	C$lab_5.c$253$1$158 ==.
	XG$PCA_ISR$0$0 ==.
	reti
;	eliminated unneeded mov psw,# (no regs used in bank)
;	eliminated unneeded push/pop dpl
;	eliminated unneeded push/pop dph
;	eliminated unneeded push/pop b
;------------------------------------------------------------
;Allocation info for local variables in function 'pause'
;------------------------------------------------------------
	G$pause$0$0 ==.
	C$lab_5.c$285$1$158 ==.
;	C:\Users\gerlig\Documents\School\LITEC\LAB5\lab-5.c:285: void pause(void) //used for reading from the keypad
;	-----------------------------------------
;	 function pause
;	-----------------------------------------
_pause:
	C$lab_5.c$287$1$163 ==.
;	C:\Users\gerlig\Documents\School\LITEC\LAB5\lab-5.c:287: nCounts = 0;
	clr	a
	mov	_nCounts,a
	mov	(_nCounts + 1),a
	C$lab_5.c$288$1$163 ==.
;	C:\Users\gerlig\Documents\School\LITEC\LAB5\lab-5.c:288: while (nCounts < 6);// 1 count -> (65536-PCA_START) x 12/22118400 = 20ms
00101$:
	clr	c
	mov	a,_nCounts
	subb	a,#0x06
	mov	a,(_nCounts + 1)
	subb	a,#0x00
	jc	00101$
	C$lab_5.c$289$1$163 ==.
	XG$pause$0$0 ==.
	ret
;------------------------------------------------------------
;Allocation info for local variables in function 'wait'
;------------------------------------------------------------
	G$wait$0$0 ==.
	C$lab_5.c$292$1$163 ==.
;	C:\Users\gerlig\Documents\School\LITEC\LAB5\lab-5.c:292: void wait(void) //used for reading from the keypad
;	-----------------------------------------
;	 function wait
;	-----------------------------------------
_wait:
	C$lab_5.c$294$1$165 ==.
;	C:\Users\gerlig\Documents\School\LITEC\LAB5\lab-5.c:294: nCounts = 0;
	clr	a
	mov	_nCounts,a
	mov	(_nCounts + 1),a
	C$lab_5.c$295$1$165 ==.
;	C:\Users\gerlig\Documents\School\LITEC\LAB5\lab-5.c:295: while (nCounts < 50);    // 50 counts -> 50 x 20ms = 1000ms
00101$:
	clr	c
	mov	a,_nCounts
	subb	a,#0x32
	mov	a,(_nCounts + 1)
	subb	a,#0x00
	jc	00101$
	C$lab_5.c$296$1$165 ==.
	XG$wait$0$0 ==.
	ret
;------------------------------------------------------------
;Allocation info for local variables in function 'read_AD_input'
;------------------------------------------------------------
;cast                      Allocated with name '_read_AD_input_PARM_2'
;n                         Allocated to registers 
;adcast                    Allocated to registers 
;------------------------------------------------------------
	G$read_AD_input$0$0 ==.
	C$lab_5.c$299$1$165 ==.
;	C:\Users\gerlig\Documents\School\LITEC\LAB5\lab-5.c:299: unsigned char read_AD_input(unsigned char n, unsigned char cast)
;	-----------------------------------------
;	 function read_AD_input
;	-----------------------------------------
_read_AD_input:
	mov	_AMX1SL,dpl
	C$lab_5.c$303$1$167 ==.
;	C:\Users\gerlig\Documents\School\LITEC\LAB5\lab-5.c:303: ADC1CN = ADC1CN & ~0x20; /* Clear the Conversion Completed flag */
	anl	_ADC1CN,#0xdf
	C$lab_5.c$304$1$167 ==.
;	C:\Users\gerlig\Documents\School\LITEC\LAB5\lab-5.c:304: ADC1CN = ADC1CN | 0x10; /* Initiate A/D conversion */
	orl	_ADC1CN,#0x10
	C$lab_5.c$305$1$167 ==.
;	C:\Users\gerlig\Documents\School\LITEC\LAB5\lab-5.c:305: while ((ADC1CN & 0x20) == 0x00); /* Wait for conversion to complete */
00101$:
	mov	a,_ADC1CN
	jnb	acc.5,00101$
	C$lab_5.c$306$1$167 ==.
;	C:\Users\gerlig\Documents\School\LITEC\LAB5\lab-5.c:306: if (cast == 0) { //check for unmodified case
	mov	a,_read_AD_input_PARM_2
	jnz	00105$
	C$lab_5.c$307$2$168 ==.
;	C:\Users\gerlig\Documents\School\LITEC\LAB5\lab-5.c:307: return (ADC1); /* Return digital value in ADC1 register */
	mov	dpl,_ADC1
	sjmp	00107$
00105$:
	C$lab_5.c$310$2$169 ==.
;	C:\Users\gerlig\Documents\School\LITEC\LAB5\lab-5.c:310: adcast = (265 / cast) + 1; //create the casting gradient
	mov	__divsint_PARM_2,_read_AD_input_PARM_2
	mov	(__divsint_PARM_2 + 1),#0x00
	mov	dptr,#0x0109
	lcall	__divsint
	mov	r6,dpl
	mov	r7,dph
	mov	a,r6
	inc	a
	C$lab_5.c$311$2$169 ==.
;	C:\Users\gerlig\Documents\School\LITEC\LAB5\lab-5.c:311: return (ADC1/adcast); /* Return digital value in ADC1 register */
	mov	b,a
	mov	a,_ADC1
	div	ab
	mov	dpl,a
00107$:
	C$lab_5.c$313$1$167 ==.
	XG$read_AD_input$0$0 ==.
	ret
;------------------------------------------------------------
;Allocation info for local variables in function 'PCA_Init'
;------------------------------------------------------------
	G$PCA_Init$0$0 ==.
	C$lab_5.c$315$1$167 ==.
;	C:\Users\gerlig\Documents\School\LITEC\LAB5\lab-5.c:315: void PCA_Init(void)
;	-----------------------------------------
;	 function PCA_Init
;	-----------------------------------------
_PCA_Init:
	C$lab_5.c$317$1$171 ==.
;	C:\Users\gerlig\Documents\School\LITEC\LAB5\lab-5.c:317: PCA0MD = 0x81; //emable CF interrupt and SYSCLK/12
	mov	_PCA0MD,#0x81
	C$lab_5.c$318$1$171 ==.
;	C:\Users\gerlig\Documents\School\LITEC\LAB5\lab-5.c:318: PCA0CPM2 = PCA0CPM3 = PCA0CPM0 = 0xC2; //CCM0,2,3 in 16 bit compare mode
	mov	_PCA0CPM0,#0xc2
	mov	_PCA0CPM3,#0xc2
	mov	_PCA0CPM2,#0xc2
	C$lab_5.c$319$1$171 ==.
;	C:\Users\gerlig\Documents\School\LITEC\LAB5\lab-5.c:319: PCA0CN = 0x40; //enable PCA counter
	mov	_PCA0CN,#0x40
	C$lab_5.c$320$1$171 ==.
;	C:\Users\gerlig\Documents\School\LITEC\LAB5\lab-5.c:320: EIE1 |= 0x08;
	orl	_EIE1,#0x08
	C$lab_5.c$321$1$171 ==.
;	C:\Users\gerlig\Documents\School\LITEC\LAB5\lab-5.c:321: EA = 1;
	setb	_EA
	C$lab_5.c$322$1$171 ==.
	XG$PCA_Init$0$0 ==.
	ret
;------------------------------------------------------------
;Allocation info for local variables in function 'ADC_Init'
;------------------------------------------------------------
	G$ADC_Init$0$0 ==.
	C$lab_5.c$325$1$171 ==.
;	C:\Users\gerlig\Documents\School\LITEC\LAB5\lab-5.c:325: void ADC_Init(void)
;	-----------------------------------------
;	 function ADC_Init
;	-----------------------------------------
_ADC_Init:
	C$lab_5.c$327$1$173 ==.
;	C:\Users\gerlig\Documents\School\LITEC\LAB5\lab-5.c:327: REF0CN = 0x03; /* Set Vref to use internal reference voltage (2.4V) */
	mov	_REF0CN,#0x03
	C$lab_5.c$328$1$173 ==.
;	C:\Users\gerlig\Documents\School\LITEC\LAB5\lab-5.c:328: ADC1CN = 0x80; /* Enable A/D converter (ADC1) */
	mov	_ADC1CN,#0x80
	C$lab_5.c$329$1$173 ==.
;	C:\Users\gerlig\Documents\School\LITEC\LAB5\lab-5.c:329: ADC1CF |= 0x01; /* Set A/D converter gain to 1 */
	orl	_ADC1CF,#0x01
	C$lab_5.c$330$1$173 ==.
	XG$ADC_Init$0$0 ==.
	ret
;------------------------------------------------------------
;Allocation info for local variables in function 'SMB_Init'
;------------------------------------------------------------
	G$SMB_Init$0$0 ==.
	C$lab_5.c$333$1$173 ==.
;	C:\Users\gerlig\Documents\School\LITEC\LAB5\lab-5.c:333: void SMB_Init(void)
;	-----------------------------------------
;	 function SMB_Init
;	-----------------------------------------
_SMB_Init:
	C$lab_5.c$335$1$175 ==.
;	C:\Users\gerlig\Documents\School\LITEC\LAB5\lab-5.c:335: SMB0CR = 0x93; // set SCL to 100KHz
	mov	_SMB0CR,#0x93
	C$lab_5.c$336$1$175 ==.
;	C:\Users\gerlig\Documents\School\LITEC\LAB5\lab-5.c:336: ENSMB = TRUE; // enable SMBUS0
	setb	_ENSMB
	C$lab_5.c$337$1$175 ==.
	XG$SMB_Init$0$0 ==.
	ret
;------------------------------------------------------------
;Allocation info for local variables in function 'Port_Init'
;------------------------------------------------------------
	G$Port_Init$0$0 ==.
	C$lab_5.c$340$1$175 ==.
;	C:\Users\gerlig\Documents\School\LITEC\LAB5\lab-5.c:340: void Port_Init(void)
;	-----------------------------------------
;	 function Port_Init
;	-----------------------------------------
_Port_Init:
	C$lab_5.c$342$1$177 ==.
;	C:\Users\gerlig\Documents\School\LITEC\LAB5\lab-5.c:342: P1MDIN &= ~0x10; 	//potentiometer
	anl	_P1MDIN,#0xef
	C$lab_5.c$343$1$177 ==.
;	C:\Users\gerlig\Documents\School\LITEC\LAB5\lab-5.c:343: P1MDOUT &= ~0x10;
	anl	_P1MDOUT,#0xef
	C$lab_5.c$344$1$177 ==.
;	C:\Users\gerlig\Documents\School\LITEC\LAB5\lab-5.c:344: P1MDOUT |= 0x0D;	//CEX pins
	orl	_P1MDOUT,#0x0d
	C$lab_5.c$345$1$177 ==.
;	C:\Users\gerlig\Documents\School\LITEC\LAB5\lab-5.c:345: P1 |= 0x10;
	orl	_P1,#0x10
	C$lab_5.c$347$1$177 ==.
;	C:\Users\gerlig\Documents\School\LITEC\LAB5\lab-5.c:347: P2MDOUT |= 0xFF; // set Port 2 output pins to push-pull mode
	mov	a,_P2MDOUT
	mov	_P2MDOUT,#0xff
	C$lab_5.c$349$1$177 ==.
;	C:\Users\gerlig\Documents\School\LITEC\LAB5\lab-5.c:349: P3MDOUT &= 0x80;	//set P3.7 for input (open drain) w high impedance
	anl	_P3MDOUT,#0x80
	C$lab_5.c$350$1$177 ==.
;	C:\Users\gerlig\Documents\School\LITEC\LAB5\lab-5.c:350: P3 |= ~0x80;
	orl	_P3,#0x7f
	C$lab_5.c$351$1$177 ==.
	XG$Port_Init$0$0 ==.
	ret
;------------------------------------------------------------
;Allocation info for local variables in function 'XBR0_Init'
;------------------------------------------------------------
	G$XBR0_Init$0$0 ==.
	C$lab_5.c$354$1$177 ==.
;	C:\Users\gerlig\Documents\School\LITEC\LAB5\lab-5.c:354: void XBR0_Init(void)
;	-----------------------------------------
;	 function XBR0_Init
;	-----------------------------------------
_XBR0_Init:
	C$lab_5.c$356$1$179 ==.
;	C:\Users\gerlig\Documents\School\LITEC\LAB5\lab-5.c:356: XBR0 = 0x27;  //configure crossbar as directed in the laboratory
	mov	_XBR0,#0x27
	C$lab_5.c$358$1$179 ==.
	XG$XBR0_Init$0$0 ==.
	ret
;------------------------------------------------------------
;Allocation info for local variables in function 'calibration'
;------------------------------------------------------------
;addr                      Allocated to registers r7 
;i                         Allocated to registers 
;------------------------------------------------------------
	G$calibration$0$0 ==.
	C$lab_5.c$360$1$179 ==.
;	C:\Users\gerlig\Documents\School\LITEC\LAB5\lab-5.c:360: void calibration(void) {
;	-----------------------------------------
;	 function calibration
;	-----------------------------------------
_calibration:
	C$lab_5.c$361$1$179 ==.
;	C:\Users\gerlig\Documents\School\LITEC\LAB5\lab-5.c:361: unsigned char addr = 0x3A; // the address of the accel
	mov	r7,#0x3a
	C$lab_5.c$364$1$181 ==.
;	C:\Users\gerlig\Documents\School\LITEC\LAB5\lab-5.c:364: avg_gx = 0;
	clr	a
	mov	_avg_gx,a
	mov	(_avg_gx + 1),a
	C$lab_5.c$365$1$181 ==.
;	C:\Users\gerlig\Documents\School\LITEC\LAB5\lab-5.c:365: avg_gy = 0;
	mov	_avg_gy,a
	mov	(_avg_gy + 1),a
	C$lab_5.c$367$1$181 ==.
;	C:\Users\gerlig\Documents\School\LITEC\LAB5\lab-5.c:367: for (i = 0; i < 64; i++) { //average of 64 trials for calibration data
	mov	r6,#0x00
00105$:
	C$lab_5.c$369$2$182 ==.
;	C:\Users\gerlig\Documents\School\LITEC\LAB5\lab-5.c:369: i2c_read_data(addr, 0x27, Data, 2);
	mov	_i2c_read_data_PARM_3,#_Data
	mov	(_i2c_read_data_PARM_3 + 1),#0x00
	mov	(_i2c_read_data_PARM_3 + 2),#0x40
	mov	_i2c_read_data_PARM_2,#0x27
	mov	_i2c_read_data_PARM_4,#0x02
	mov	dpl,r7
	push	ar7
	push	ar6
	lcall	_i2c_read_data
	pop	ar6
	pop	ar7
	C$lab_5.c$371$2$182 ==.
;	C:\Users\gerlig\Documents\School\LITEC\LAB5\lab-5.c:371: while ((Data[0] & 0x03) != 0x03) {
00101$:
	mov	a,#0x03
	anl	a,_Data
	mov	r5,a
	cjne	r5,#0x03,00122$
	sjmp	00103$
00122$:
	C$lab_5.c$372$3$183 ==.
;	C:\Users\gerlig\Documents\School\LITEC\LAB5\lab-5.c:372: i2c_read_data(addr, 0x27, Data, 2);
	mov	_i2c_read_data_PARM_3,#_Data
	mov	(_i2c_read_data_PARM_3 + 1),#0x00
	mov	(_i2c_read_data_PARM_3 + 2),#0x40
	mov	_i2c_read_data_PARM_2,#0x27
	mov	_i2c_read_data_PARM_4,#0x02
	mov	dpl,r7
	push	ar7
	push	ar6
	lcall	_i2c_read_data
	pop	ar6
	pop	ar7
	sjmp	00101$
00103$:
	C$lab_5.c$376$2$182 ==.
;	C:\Users\gerlig\Documents\School\LITEC\LAB5\lab-5.c:376: i2c_read_data(addr, 0x28|0x80, Data, 4);
	mov	_i2c_read_data_PARM_3,#_Data
	mov	(_i2c_read_data_PARM_3 + 1),#0x00
	mov	(_i2c_read_data_PARM_3 + 2),#0x40
	mov	_i2c_read_data_PARM_2,#0xa8
	mov	_i2c_read_data_PARM_4,#0x04
	mov	dpl,r7
	push	ar7
	push	ar6
	lcall	_i2c_read_data
	pop	ar6
	pop	ar7
	C$lab_5.c$378$2$182 ==.
;	C:\Users\gerlig\Documents\School\LITEC\LAB5\lab-5.c:378: avg_gx += ((Data[1] << 8 | Data[0]) >> 4);
	mov	r5,(_Data + 0x0001)
	mov	r4,#0x00
	mov	r2,_Data
	mov	r3,#0x00
	mov	a,r2
	orl	ar4,a
	mov	a,r3
	orl	ar5,a
	mov	a,r5
	swap	a
	xch	a,r4
	swap	a
	anl	a,#0x0f
	xrl	a,r4
	xch	a,r4
	anl	a,#0x0f
	xch	a,r4
	xrl	a,r4
	xch	a,r4
	jnb	acc.3,00123$
	orl	a,#0xf0
00123$:
	mov	r5,a
	mov	a,r4
	add	a,_avg_gx
	mov	_avg_gx,a
	mov	a,r5
	addc	a,(_avg_gx + 1)
	mov	(_avg_gx + 1),a
	C$lab_5.c$379$2$182 ==.
;	C:\Users\gerlig\Documents\School\LITEC\LAB5\lab-5.c:379: avg_gy += ((Data[3] << 8 | Data[2]) >> 4);
	mov	r5,(_Data + 0x0003)
	mov	r4,#0x00
	mov	r2,(_Data + 0x0002)
	mov	r3,#0x00
	mov	a,r2
	orl	ar4,a
	mov	a,r3
	orl	ar5,a
	mov	a,r5
	swap	a
	xch	a,r4
	swap	a
	anl	a,#0x0f
	xrl	a,r4
	xch	a,r4
	anl	a,#0x0f
	xch	a,r4
	xrl	a,r4
	xch	a,r4
	jnb	acc.3,00124$
	orl	a,#0xf0
00124$:
	mov	r5,a
	mov	a,r4
	add	a,_avg_gy
	mov	_avg_gy,a
	mov	a,r5
	addc	a,(_avg_gy + 1)
	mov	(_avg_gy + 1),a
	C$lab_5.c$367$1$181 ==.
;	C:\Users\gerlig\Documents\School\LITEC\LAB5\lab-5.c:367: for (i = 0; i < 64; i++) { //average of 64 trials for calibration data
	inc	r6
	cjne	r6,#0x40,00125$
00125$:
	jnc	00126$
	ljmp	00105$
00126$:
	C$lab_5.c$382$1$181 ==.
;	C:\Users\gerlig\Documents\School\LITEC\LAB5\lab-5.c:382: x0 = avg_gx / 64; 
	mov	__divsint_PARM_2,#0x40
	mov	(__divsint_PARM_2 + 1),#0x00
	mov	dpl,_avg_gx
	mov	dph,(_avg_gx + 1)
	lcall	__divsint
	mov	_x0,dpl
	mov	(_x0 + 1),dph
	C$lab_5.c$383$1$181 ==.
;	C:\Users\gerlig\Documents\School\LITEC\LAB5\lab-5.c:383: y0 = avg_gy / 64;
	mov	__divsint_PARM_2,#0x40
	mov	(__divsint_PARM_2 + 1),#0x00
	mov	dpl,_avg_gy
	mov	dph,(_avg_gy + 1)
	lcall	__divsint
	mov	_y0,dpl
	mov	(_y0 + 1),dph
	C$lab_5.c$385$1$181 ==.
	XG$calibration$0$0 ==.
	ret
;------------------------------------------------------------
;Allocation info for local variables in function 'read_accels'
;------------------------------------------------------------
;addr                      Allocated to registers r7 
;i                         Allocated to registers 
;------------------------------------------------------------
	G$read_accels$0$0 ==.
	C$lab_5.c$387$1$181 ==.
;	C:\Users\gerlig\Documents\School\LITEC\LAB5\lab-5.c:387: void read_accels(void)
;	-----------------------------------------
;	 function read_accels
;	-----------------------------------------
_read_accels:
	C$lab_5.c$389$1$181 ==.
;	C:\Users\gerlig\Documents\School\LITEC\LAB5\lab-5.c:389: unsigned char addr = 0x3A; // the address of the accel
	mov	r7,#0x3a
	C$lab_5.c$392$1$185 ==.
;	C:\Users\gerlig\Documents\School\LITEC\LAB5\lab-5.c:392: avg_gx = 0;
	clr	a
	mov	_avg_gx,a
	mov	(_avg_gx + 1),a
	C$lab_5.c$393$1$185 ==.
;	C:\Users\gerlig\Documents\School\LITEC\LAB5\lab-5.c:393: avg_gy = 0;
	mov	_avg_gy,a
	mov	(_avg_gy + 1),a
	C$lab_5.c$395$1$185 ==.
;	C:\Users\gerlig\Documents\School\LITEC\LAB5\lab-5.c:395: for (i = 0; i < 8; i++) {
	mov	r6,#0x00
00105$:
	C$lab_5.c$397$2$186 ==.
;	C:\Users\gerlig\Documents\School\LITEC\LAB5\lab-5.c:397: i2c_read_data(addr, 0x27, Data, 2);
	mov	_i2c_read_data_PARM_3,#_Data
	mov	(_i2c_read_data_PARM_3 + 1),#0x00
	mov	(_i2c_read_data_PARM_3 + 2),#0x40
	mov	_i2c_read_data_PARM_2,#0x27
	mov	_i2c_read_data_PARM_4,#0x02
	mov	dpl,r7
	push	ar7
	push	ar6
	lcall	_i2c_read_data
	pop	ar6
	pop	ar7
	C$lab_5.c$399$2$186 ==.
;	C:\Users\gerlig\Documents\School\LITEC\LAB5\lab-5.c:399: while ((Data[0] & 0x03) != 0x03) {
00101$:
	mov	a,#0x03
	anl	a,_Data
	mov	r5,a
	cjne	r5,#0x03,00122$
	sjmp	00103$
00122$:
	C$lab_5.c$400$3$187 ==.
;	C:\Users\gerlig\Documents\School\LITEC\LAB5\lab-5.c:400: i2c_read_data(addr, 0x27, Data, 2);
	mov	_i2c_read_data_PARM_3,#_Data
	mov	(_i2c_read_data_PARM_3 + 1),#0x00
	mov	(_i2c_read_data_PARM_3 + 2),#0x40
	mov	_i2c_read_data_PARM_2,#0x27
	mov	_i2c_read_data_PARM_4,#0x02
	mov	dpl,r7
	push	ar7
	push	ar6
	lcall	_i2c_read_data
	pop	ar6
	pop	ar7
	sjmp	00101$
00103$:
	C$lab_5.c$404$2$186 ==.
;	C:\Users\gerlig\Documents\School\LITEC\LAB5\lab-5.c:404: i2c_read_data(addr, 0x28|0x80, Data, 4);
	mov	_i2c_read_data_PARM_3,#_Data
	mov	(_i2c_read_data_PARM_3 + 1),#0x00
	mov	(_i2c_read_data_PARM_3 + 2),#0x40
	mov	_i2c_read_data_PARM_2,#0xa8
	mov	_i2c_read_data_PARM_4,#0x04
	mov	dpl,r7
	push	ar7
	push	ar6
	lcall	_i2c_read_data
	pop	ar6
	pop	ar7
	C$lab_5.c$406$2$186 ==.
;	C:\Users\gerlig\Documents\School\LITEC\LAB5\lab-5.c:406: avg_gx += ((Data[1] << 8 | Data[0]) >> 4);
	mov	r5,(_Data + 0x0001)
	mov	r4,#0x00
	mov	r2,_Data
	mov	r3,#0x00
	mov	a,r2
	orl	ar4,a
	mov	a,r3
	orl	ar5,a
	mov	a,r5
	swap	a
	xch	a,r4
	swap	a
	anl	a,#0x0f
	xrl	a,r4
	xch	a,r4
	anl	a,#0x0f
	xch	a,r4
	xrl	a,r4
	xch	a,r4
	jnb	acc.3,00123$
	orl	a,#0xf0
00123$:
	mov	r5,a
	mov	a,r4
	add	a,_avg_gx
	mov	_avg_gx,a
	mov	a,r5
	addc	a,(_avg_gx + 1)
	mov	(_avg_gx + 1),a
	C$lab_5.c$407$2$186 ==.
;	C:\Users\gerlig\Documents\School\LITEC\LAB5\lab-5.c:407: avg_gy += ((Data[3] << 8 | Data[2]) >> 4);
	mov	r5,(_Data + 0x0003)
	mov	r4,#0x00
	mov	r2,(_Data + 0x0002)
	mov	r3,#0x00
	mov	a,r2
	orl	ar4,a
	mov	a,r3
	orl	ar5,a
	mov	a,r5
	swap	a
	xch	a,r4
	swap	a
	anl	a,#0x0f
	xrl	a,r4
	xch	a,r4
	anl	a,#0x0f
	xch	a,r4
	xrl	a,r4
	xch	a,r4
	jnb	acc.3,00124$
	orl	a,#0xf0
00124$:
	mov	r5,a
	mov	a,r4
	add	a,_avg_gy
	mov	_avg_gy,a
	mov	a,r5
	addc	a,(_avg_gy + 1)
	mov	(_avg_gy + 1),a
	C$lab_5.c$395$1$185 ==.
;	C:\Users\gerlig\Documents\School\LITEC\LAB5\lab-5.c:395: for (i = 0; i < 8; i++) {
	inc	r6
	cjne	r6,#0x08,00125$
00125$:
	jnc	00126$
	ljmp	00105$
00126$:
	C$lab_5.c$410$1$185 ==.
;	C:\Users\gerlig\Documents\School\LITEC\LAB5\lab-5.c:410: avg_gx = avg_gx >> 3;
	mov	a,(_avg_gx + 1)
	swap	a
	rl	a
	xch	a,_avg_gx
	swap	a
	rl	a
	anl	a,#0x1f
	xrl	a,_avg_gx
	xch	a,_avg_gx
	anl	a,#0x1f
	xch	a,_avg_gx
	xrl	a,_avg_gx
	xch	a,_avg_gx
	jnb	acc.4,00127$
	orl	a,#0xe0
00127$:
	mov	(_avg_gx + 1),a
	C$lab_5.c$411$1$185 ==.
;	C:\Users\gerlig\Documents\School\LITEC\LAB5\lab-5.c:411: avg_gy = avg_gy >> 3;
	mov	a,(_avg_gy + 1)
	swap	a
	rl	a
	xch	a,_avg_gy
	swap	a
	rl	a
	anl	a,#0x1f
	xrl	a,_avg_gy
	xch	a,_avg_gy
	anl	a,#0x1f
	xch	a,_avg_gy
	xrl	a,_avg_gy
	xch	a,_avg_gy
	jnb	acc.4,00128$
	orl	a,#0xe0
00128$:
	mov	(_avg_gy + 1),a
	C$lab_5.c$413$1$185 ==.
;	C:\Users\gerlig\Documents\School\LITEC\LAB5\lab-5.c:413: gx = avg_gx - x0;
	mov	a,_avg_gx
	clr	c
	subb	a,_x0
	mov	_gx,a
	mov	a,(_avg_gx + 1)
	subb	a,(_x0 + 1)
	mov	(_gx + 1),a
	C$lab_5.c$414$1$185 ==.
;	C:\Users\gerlig\Documents\School\LITEC\LAB5\lab-5.c:414: gy = avg_gy - y0;
	mov	a,_avg_gy
	clr	c
	subb	a,_y0
	mov	_gy,a
	mov	a,(_avg_gy + 1)
	subb	a,(_y0 + 1)
	mov	(_gy + 1),a
	C$lab_5.c$416$1$185 ==.
	XG$read_accels$0$0 ==.
	ret
;------------------------------------------------------------
;Allocation info for local variables in function 'set_servo_PWM'
;------------------------------------------------------------
	G$set_servo_PWM$0$0 ==.
	C$lab_5.c$419$1$185 ==.
;	C:\Users\gerlig\Documents\School\LITEC\LAB5\lab-5.c:419: void set_servo_PWM(void)
;	-----------------------------------------
;	 function set_servo_PWM
;	-----------------------------------------
_set_servo_PWM:
	C$lab_5.c$421$1$189 ==.
;	C:\Users\gerlig\Documents\School\LITEC\LAB5\lab-5.c:421: SERVO_PW = SERVO_CENTER + ks * gx;
	mov	r6,_ks
	mov	r7,#0x00
	mov	__mulint_PARM_2,_gx
	mov	(__mulint_PARM_2 + 1),(_gx + 1)
	mov	dpl,r6
	mov	dph,r7
	lcall	__mulint
	mov	r6,dpl
	mov	r7,dph
	mov	a,r6
	add	a,_SERVO_CENTER
	mov	_SERVO_PW,a
	mov	a,r7
	addc	a,(_SERVO_CENTER + 1)
	mov	(_SERVO_PW + 1),a
	C$lab_5.c$423$1$189 ==.
;	C:\Users\gerlig\Documents\School\LITEC\LAB5\lab-5.c:423: if (SERVO_PW > SERVO_RIGHT) {
	clr	c
	mov	a,_SERVO_RIGHT
	subb	a,_SERVO_PW
	mov	a,(_SERVO_RIGHT + 1)
	subb	a,(_SERVO_PW + 1)
	jnc	00102$
	C$lab_5.c$424$2$190 ==.
;	C:\Users\gerlig\Documents\School\LITEC\LAB5\lab-5.c:424: SERVO_PW = SERVO_RIGHT;
	mov	_SERVO_PW,_SERVO_RIGHT
	mov	(_SERVO_PW + 1),(_SERVO_RIGHT + 1)
00102$:
	C$lab_5.c$427$1$189 ==.
;	C:\Users\gerlig\Documents\School\LITEC\LAB5\lab-5.c:427: if (SERVO_PW < SERVO_LEFT) {
	clr	c
	mov	a,_SERVO_PW
	subb	a,_SERVO_LEFT
	mov	a,(_SERVO_PW + 1)
	subb	a,(_SERVO_LEFT + 1)
	jnc	00104$
	C$lab_5.c$428$2$191 ==.
;	C:\Users\gerlig\Documents\School\LITEC\LAB5\lab-5.c:428: SERVO_PW = SERVO_LEFT;
	mov	_SERVO_PW,_SERVO_LEFT
	mov	(_SERVO_PW + 1),(_SERVO_LEFT + 1)
00104$:
	C$lab_5.c$431$1$189 ==.
;	C:\Users\gerlig\Documents\School\LITEC\LAB5\lab-5.c:431: PCA0CP0 = 0xFFFF - SERVO_PW;
	mov	a,#0xff
	clr	c
	subb	a,_SERVO_PW
	mov	((_PCA0CP0 >> 0) & 0xFF),a
	mov	a,#0xff
	subb	a,(_SERVO_PW + 1)
	mov	((_PCA0CP0 >> 8) & 0xFF),a
	C$lab_5.c$432$1$189 ==.
	XG$set_servo_PWM$0$0 ==.
	ret
;------------------------------------------------------------
;Allocation info for local variables in function 'set_drive_PWM'
;------------------------------------------------------------
	G$set_drive_PWM$0$0 ==.
	C$lab_5.c$435$1$189 ==.
;	C:\Users\gerlig\Documents\School\LITEC\LAB5\lab-5.c:435: void set_drive_PWM(void)
;	-----------------------------------------
;	 function set_drive_PWM
;	-----------------------------------------
_set_drive_PWM:
	C$lab_5.c$437$1$193 ==.
;	C:\Users\gerlig\Documents\School\LITEC\LAB5\lab-5.c:437: kdy = read_AD_input(4, 50); //get potentiometer read to adjust speed
	mov	_read_AD_input_PARM_2,#0x32
	mov	dpl,#0x04
	lcall	_read_AD_input
	mov	_kdy,dpl
	C$lab_5.c$438$1$193 ==.
;	C:\Users\gerlig\Documents\School\LITEC\LAB5\lab-5.c:438: MOTOR_PW = MOTOR_STOP - (kdy * (3/4)) * gy; //kdy adjustment to even out forward vs reverse speeds
	mov	_MOTOR_PW,_MOTOR_STOP
	mov	(_MOTOR_PW + 1),(_MOTOR_STOP + 1)
	C$lab_5.c$439$1$193 ==.
;	C:\Users\gerlig\Documents\School\LITEC\LAB5\lab-5.c:439: MOTOR_PW += kdx * abs(gx);
	mov	dpl,_gx
	mov	dph,(_gx + 1)
	lcall	_abs
	mov	__mulint_PARM_2,dpl
	mov	(__mulint_PARM_2 + 1),dph
	mov	r6,_kdx
	mov	r7,#0x00
	mov	dpl,r6
	mov	dph,r7
	lcall	__mulint
	mov	r6,dpl
	mov	r7,dph
	mov	a,r6
	add	a,_MOTOR_PW
	mov	_MOTOR_PW,a
	mov	a,r7
	addc	a,(_MOTOR_PW + 1)
	mov	(_MOTOR_PW + 1),a
	C$lab_5.c$442$1$193 ==.
;	C:\Users\gerlig\Documents\School\LITEC\LAB5\lab-5.c:442: if (MOTOR_PW > MOTOR_MAX) {
	clr	c
	mov	a,_MOTOR_MAX
	subb	a,_MOTOR_PW
	mov	a,(_MOTOR_MAX + 1)
	subb	a,(_MOTOR_PW + 1)
	jnc	00102$
	C$lab_5.c$443$2$194 ==.
;	C:\Users\gerlig\Documents\School\LITEC\LAB5\lab-5.c:443: MOTOR_PW = MOTOR_MAX;
	mov	_MOTOR_PW,_MOTOR_MAX
	mov	(_MOTOR_PW + 1),(_MOTOR_MAX + 1)
00102$:
	C$lab_5.c$446$1$193 ==.
;	C:\Users\gerlig\Documents\School\LITEC\LAB5\lab-5.c:446: if (MOTOR_PW < MOTOR_MIN) {
	clr	c
	mov	a,_MOTOR_PW
	subb	a,_MOTOR_MIN
	mov	a,(_MOTOR_PW + 1)
	subb	a,(_MOTOR_MIN + 1)
	jnc	00104$
	C$lab_5.c$447$2$195 ==.
;	C:\Users\gerlig\Documents\School\LITEC\LAB5\lab-5.c:447: MOTOR_PW = MOTOR_MIN;
	mov	_MOTOR_PW,_MOTOR_MIN
	mov	(_MOTOR_PW + 1),(_MOTOR_MIN + 1)
00104$:
	C$lab_5.c$450$1$193 ==.
;	C:\Users\gerlig\Documents\School\LITEC\LAB5\lab-5.c:450: PCA0CP2 = 0xFFFF - MOTOR_PW;
	mov	a,#0xff
	clr	c
	subb	a,_MOTOR_PW
	mov	((_PCA0CP2 >> 0) & 0xFF),a
	mov	a,#0xff
	subb	a,(_MOTOR_PW + 1)
	mov	((_PCA0CP2 >> 8) & 0xFF),a
	C$lab_5.c$452$1$193 ==.
	XG$set_drive_PWM$0$0 ==.
	ret
;------------------------------------------------------------
;Allocation info for local variables in function 'set_gains'
;------------------------------------------------------------
;keypad                    Allocated to registers r7 
;var                       Allocated to registers r6 
;var                       Allocated to registers r6 
;------------------------------------------------------------
	G$set_gains$0$0 ==.
	C$lab_5.c$455$1$193 ==.
;	C:\Users\gerlig\Documents\School\LITEC\LAB5\lab-5.c:455: void set_gains(void) {
;	-----------------------------------------
;	 function set_gains
;	-----------------------------------------
_set_gains:
	C$lab_5.c$457$1$197 ==.
;	C:\Users\gerlig\Documents\School\LITEC\LAB5\lab-5.c:457: lcd_clear();
	lcall	_lcd_clear
	C$lab_5.c$458$1$197 ==.
;	C:\Users\gerlig\Documents\School\LITEC\LAB5\lab-5.c:458: lcd_print("Pick Gain\nPress a Number\n1: 1 2: 2 3: 3\n4: 4 0: custom");
	mov	a,#___str_11
	push	acc
	mov	a,#(___str_11 >> 8)
	push	acc
	mov	a,#0x80
	push	acc
	lcall	_lcd_print
	dec	sp
	dec	sp
	dec	sp
	C$lab_5.c$459$1$197 ==.
;	C:\Users\gerlig\Documents\School\LITEC\LAB5\lab-5.c:459: while (1) {
00145$:
	C$lab_5.c$460$2$198 ==.
;	C:\Users\gerlig\Documents\School\LITEC\LAB5\lab-5.c:460: keypad = read_keypad();
	lcall	_read_keypad
	mov	r7,dpl
	C$lab_5.c$461$2$198 ==.
;	C:\Users\gerlig\Documents\School\LITEC\LAB5\lab-5.c:461: pause();    // This pauses for 1 PCA0 counter clock cycle (20ms)
	push	ar7
	lcall	_pause
	pop	ar7
	C$lab_5.c$464$2$198 ==.
;	C:\Users\gerlig\Documents\School\LITEC\LAB5\lab-5.c:464: if (keypad != 0xFF) {
	cjne	r7,#0xff,00297$
	sjmp	00145$
00297$:
	C$lab_5.c$465$3$199 ==.
;	C:\Users\gerlig\Documents\School\LITEC\LAB5\lab-5.c:465: while (read_keypad() != 0xFF);
00101$:
	push	ar7
	lcall	_read_keypad
	mov	r6,dpl
	pop	ar7
	cjne	r6,#0xff,00101$
	C$lab_5.c$466$3$199 ==.
;	C:\Users\gerlig\Documents\School\LITEC\LAB5\lab-5.c:466: lcd_clear();
	push	ar7
	lcall	_lcd_clear
	pop	ar7
	C$lab_5.c$467$3$199 ==.
;	C:\Users\gerlig\Documents\School\LITEC\LAB5\lab-5.c:467: if (keypad == 0x31) { //if they enter a 1
	cjne	r7,#0x31,00140$
	C$lab_5.c$468$4$200 ==.
;	C:\Users\gerlig\Documents\School\LITEC\LAB5\lab-5.c:468: lcd_clear();
	lcall	_lcd_clear
	C$lab_5.c$469$4$200 ==.
;	C:\Users\gerlig\Documents\School\LITEC\LAB5\lab-5.c:469: lcd_print("Gain: 1");
	mov	a,#___str_12
	push	acc
	mov	a,#(___str_12 >> 8)
	push	acc
	mov	a,#0x80
	push	acc
	lcall	_lcd_print
	dec	sp
	dec	sp
	dec	sp
	C$lab_5.c$470$4$200 ==.
;	C:\Users\gerlig\Documents\School\LITEC\LAB5\lab-5.c:470: printf("Desired Gain: 1");
	mov	a,#___str_13
	push	acc
	mov	a,#(___str_13 >> 8)
	push	acc
	mov	a,#0x80
	push	acc
	lcall	_printf
	dec	sp
	dec	sp
	dec	sp
	C$lab_5.c$471$4$200 ==.
;	C:\Users\gerlig\Documents\School\LITEC\LAB5\lab-5.c:471: wait();
	lcall	_wait
	C$lab_5.c$472$4$200 ==.
;	C:\Users\gerlig\Documents\School\LITEC\LAB5\lab-5.c:472: ks = 1;
	mov	_ks,#0x01
	C$lab_5.c$473$4$200 ==.
;	C:\Users\gerlig\Documents\School\LITEC\LAB5\lab-5.c:473: break;
	ljmp	00146$
00140$:
	C$lab_5.c$475$3$199 ==.
;	C:\Users\gerlig\Documents\School\LITEC\LAB5\lab-5.c:475: else if (keypad == 0x32) { //if they enter a 2
	cjne	r7,#0x32,00137$
	C$lab_5.c$476$4$201 ==.
;	C:\Users\gerlig\Documents\School\LITEC\LAB5\lab-5.c:476: lcd_clear();
	lcall	_lcd_clear
	C$lab_5.c$477$4$201 ==.
;	C:\Users\gerlig\Documents\School\LITEC\LAB5\lab-5.c:477: lcd_print("Gain: 2");
	mov	a,#___str_14
	push	acc
	mov	a,#(___str_14 >> 8)
	push	acc
	mov	a,#0x80
	push	acc
	lcall	_lcd_print
	dec	sp
	dec	sp
	dec	sp
	C$lab_5.c$478$4$201 ==.
;	C:\Users\gerlig\Documents\School\LITEC\LAB5\lab-5.c:478: printf("Desired Gain: 2");
	mov	a,#___str_15
	push	acc
	mov	a,#(___str_15 >> 8)
	push	acc
	mov	a,#0x80
	push	acc
	lcall	_printf
	dec	sp
	dec	sp
	dec	sp
	C$lab_5.c$479$4$201 ==.
;	C:\Users\gerlig\Documents\School\LITEC\LAB5\lab-5.c:479: wait();
	lcall	_wait
	C$lab_5.c$480$4$201 ==.
;	C:\Users\gerlig\Documents\School\LITEC\LAB5\lab-5.c:480: ks = 2;
	mov	_ks,#0x02
	C$lab_5.c$481$4$201 ==.
;	C:\Users\gerlig\Documents\School\LITEC\LAB5\lab-5.c:481: break;
	ljmp	00146$
00137$:
	C$lab_5.c$483$3$199 ==.
;	C:\Users\gerlig\Documents\School\LITEC\LAB5\lab-5.c:483: else if (keypad == 0x33) { //if they enter a 3
	cjne	r7,#0x33,00134$
	C$lab_5.c$484$4$202 ==.
;	C:\Users\gerlig\Documents\School\LITEC\LAB5\lab-5.c:484: lcd_clear();
	lcall	_lcd_clear
	C$lab_5.c$485$4$202 ==.
;	C:\Users\gerlig\Documents\School\LITEC\LAB5\lab-5.c:485: lcd_print("Gain: 3");
	mov	a,#___str_16
	push	acc
	mov	a,#(___str_16 >> 8)
	push	acc
	mov	a,#0x80
	push	acc
	lcall	_lcd_print
	dec	sp
	dec	sp
	dec	sp
	C$lab_5.c$486$4$202 ==.
;	C:\Users\gerlig\Documents\School\LITEC\LAB5\lab-5.c:486: printf("Desired Gain: 3");
	mov	a,#___str_17
	push	acc
	mov	a,#(___str_17 >> 8)
	push	acc
	mov	a,#0x80
	push	acc
	lcall	_printf
	dec	sp
	dec	sp
	dec	sp
	C$lab_5.c$487$4$202 ==.
;	C:\Users\gerlig\Documents\School\LITEC\LAB5\lab-5.c:487: wait();
	lcall	_wait
	C$lab_5.c$488$4$202 ==.
;	C:\Users\gerlig\Documents\School\LITEC\LAB5\lab-5.c:488: ks = 3;
	mov	_ks,#0x03
	C$lab_5.c$489$4$202 ==.
;	C:\Users\gerlig\Documents\School\LITEC\LAB5\lab-5.c:489: break;
	ljmp	00146$
00134$:
	C$lab_5.c$491$3$199 ==.
;	C:\Users\gerlig\Documents\School\LITEC\LAB5\lab-5.c:491: else if (keypad == 0x34) { //if they enter a 4
	cjne	r7,#0x34,00131$
	C$lab_5.c$492$4$203 ==.
;	C:\Users\gerlig\Documents\School\LITEC\LAB5\lab-5.c:492: lcd_clear();
	lcall	_lcd_clear
	C$lab_5.c$493$4$203 ==.
;	C:\Users\gerlig\Documents\School\LITEC\LAB5\lab-5.c:493: lcd_print("Gain: 4");
	mov	a,#___str_18
	push	acc
	mov	a,#(___str_18 >> 8)
	push	acc
	mov	a,#0x80
	push	acc
	lcall	_lcd_print
	dec	sp
	dec	sp
	dec	sp
	C$lab_5.c$494$4$203 ==.
;	C:\Users\gerlig\Documents\School\LITEC\LAB5\lab-5.c:494: printf("Desired Gain: 4");
	mov	a,#___str_19
	push	acc
	mov	a,#(___str_19 >> 8)
	push	acc
	mov	a,#0x80
	push	acc
	lcall	_printf
	dec	sp
	dec	sp
	dec	sp
	C$lab_5.c$495$4$203 ==.
;	C:\Users\gerlig\Documents\School\LITEC\LAB5\lab-5.c:495: wait();
	lcall	_wait
	C$lab_5.c$496$4$203 ==.
;	C:\Users\gerlig\Documents\School\LITEC\LAB5\lab-5.c:496: ks = 4;
	mov	_ks,#0x04
	C$lab_5.c$497$4$203 ==.
;	C:\Users\gerlig\Documents\School\LITEC\LAB5\lab-5.c:497: break;
	ljmp	00146$
00131$:
	C$lab_5.c$499$3$199 ==.
;	C:\Users\gerlig\Documents\School\LITEC\LAB5\lab-5.c:499: else if (keypad == 0x30) { //if they enter a 0
	cjne	r7,#0x30,00308$
	sjmp	00309$
00308$:
	ljmp	00145$
00309$:
	C$lab_5.c$501$4$204 ==.
;	C:\Users\gerlig\Documents\School\LITEC\LAB5\lab-5.c:501: lcd_clear();
	lcall	_lcd_clear
	C$lab_5.c$502$4$204 ==.
;	C:\Users\gerlig\Documents\School\LITEC\LAB5\lab-5.c:502: lcd_print("Enter your number\nStart with 0s\nif need be\nso 45 is 045");
	mov	a,#___str_20
	push	acc
	mov	a,#(___str_20 >> 8)
	push	acc
	mov	a,#0x80
	push	acc
	lcall	_lcd_print
	dec	sp
	dec	sp
	dec	sp
	C$lab_5.c$503$4$204 ==.
;	C:\Users\gerlig\Documents\School\LITEC\LAB5\lab-5.c:503: while (1) {
00110$:
	C$lab_5.c$504$5$205 ==.
;	C:\Users\gerlig\Documents\School\LITEC\LAB5\lab-5.c:504: keypad = read_keypad();
	lcall	_read_keypad
	mov	r7,dpl
	C$lab_5.c$505$5$205 ==.
;	C:\Users\gerlig\Documents\School\LITEC\LAB5\lab-5.c:505: pause();
	push	ar7
	lcall	_pause
	pop	ar7
	C$lab_5.c$506$5$205 ==.
;	C:\Users\gerlig\Documents\School\LITEC\LAB5\lab-5.c:506: if (keypad != 0xFF) {
	cjne	r7,#0xff,00310$
	sjmp	00110$
00310$:
	C$lab_5.c$507$6$206 ==.
;	C:\Users\gerlig\Documents\School\LITEC\LAB5\lab-5.c:507: while (read_keypad() != 0xFF);
00104$:
	push	ar7
	lcall	_read_keypad
	mov	r6,dpl
	pop	ar7
	cjne	r6,#0xff,00104$
	C$lab_5.c$508$6$206 ==.
;	C:\Users\gerlig\Documents\School\LITEC\LAB5\lab-5.c:508: lcd_clear();
	push	ar7
	lcall	_lcd_clear
	pop	ar7
	C$lab_5.c$509$6$206 ==.
;	C:\Users\gerlig\Documents\School\LITEC\LAB5\lab-5.c:509: var = (keypad - 0x30) * 100;
	mov	a,r7
	add	a,#0xd0
	mov	b,#0x64
	mul	ab
	C$lab_5.c$510$6$206 ==.
;	C:\Users\gerlig\Documents\School\LITEC\LAB5\lab-5.c:510: lcd_print("%i", var);
	mov	r6,a
	mov	r4,a
	mov	r5,#0x00
	push	ar6
	push	ar4
	push	ar5
	mov	a,#___str_21
	push	acc
	mov	a,#(___str_21 >> 8)
	push	acc
	mov	a,#0x80
	push	acc
	lcall	_lcd_print
	mov	a,sp
	add	a,#0xfb
	mov	sp,a
	pop	ar6
	C$lab_5.c$514$4$204 ==.
;	C:\Users\gerlig\Documents\School\LITEC\LAB5\lab-5.c:514: while (1) {
00118$:
	C$lab_5.c$515$5$207 ==.
;	C:\Users\gerlig\Documents\School\LITEC\LAB5\lab-5.c:515: keypad = read_keypad();
	push	ar6
	lcall	_read_keypad
	mov	r7,dpl
	pop	ar6
	C$lab_5.c$516$5$207 ==.
;	C:\Users\gerlig\Documents\School\LITEC\LAB5\lab-5.c:516: pause();
	push	ar7
	push	ar6
	lcall	_pause
	pop	ar6
	pop	ar7
	C$lab_5.c$517$5$207 ==.
;	C:\Users\gerlig\Documents\School\LITEC\LAB5\lab-5.c:517: if (keypad != 0xFF) {
	cjne	r7,#0xff,00313$
	sjmp	00118$
00313$:
	C$lab_5.c$518$6$208 ==.
;	C:\Users\gerlig\Documents\School\LITEC\LAB5\lab-5.c:518: while (read_keypad() != 0xFF);
00112$:
	push	ar7
	push	ar6
	lcall	_read_keypad
	mov	r5,dpl
	pop	ar6
	pop	ar7
	cjne	r5,#0xff,00112$
	C$lab_5.c$519$6$208 ==.
;	C:\Users\gerlig\Documents\School\LITEC\LAB5\lab-5.c:519: lcd_clear();
	push	ar7
	push	ar6
	lcall	_lcd_clear
	pop	ar6
	pop	ar7
	C$lab_5.c$520$6$208 ==.
;	C:\Users\gerlig\Documents\School\LITEC\LAB5\lab-5.c:520: var = var + ((keypad - 0x30) * 10);
	mov	a,r7
	add	a,#0xd0
	mov	b,#0x0a
	mul	ab
	add	a,r6
	C$lab_5.c$521$6$208 ==.
;	C:\Users\gerlig\Documents\School\LITEC\LAB5\lab-5.c:521: lcd_print("%i", var);
	mov	r6,a
	mov	r4,a
	mov	r5,#0x00
	push	ar6
	push	ar4
	push	ar5
	mov	a,#___str_21
	push	acc
	mov	a,#(___str_21 >> 8)
	push	acc
	mov	a,#0x80
	push	acc
	lcall	_lcd_print
	mov	a,sp
	add	a,#0xfb
	mov	sp,a
	pop	ar6
	C$lab_5.c$525$4$204 ==.
;	C:\Users\gerlig\Documents\School\LITEC\LAB5\lab-5.c:525: while (1) {
00126$:
	C$lab_5.c$526$5$209 ==.
;	C:\Users\gerlig\Documents\School\LITEC\LAB5\lab-5.c:526: keypad = read_keypad();
	push	ar6
	lcall	_read_keypad
	mov	r7,dpl
	pop	ar6
	C$lab_5.c$527$5$209 ==.
;	C:\Users\gerlig\Documents\School\LITEC\LAB5\lab-5.c:527: pause();
	push	ar7
	push	ar6
	lcall	_pause
	pop	ar6
	pop	ar7
	C$lab_5.c$528$5$209 ==.
;	C:\Users\gerlig\Documents\School\LITEC\LAB5\lab-5.c:528: if (keypad != 0xFF) {
	cjne	r7,#0xff,00316$
	sjmp	00126$
00316$:
	C$lab_5.c$529$6$210 ==.
;	C:\Users\gerlig\Documents\School\LITEC\LAB5\lab-5.c:529: while (read_keypad() != 0xFF);
00120$:
	push	ar7
	push	ar6
	lcall	_read_keypad
	mov	r5,dpl
	pop	ar6
	pop	ar7
	cjne	r5,#0xff,00120$
	C$lab_5.c$530$6$210 ==.
;	C:\Users\gerlig\Documents\School\LITEC\LAB5\lab-5.c:530: lcd_clear();
	push	ar7
	push	ar6
	lcall	_lcd_clear
	pop	ar6
	pop	ar7
	C$lab_5.c$531$6$210 ==.
;	C:\Users\gerlig\Documents\School\LITEC\LAB5\lab-5.c:531: var = var + (keypad - 0x30);
	mov	a,r7
	add	a,#0xd0
	add	a,r6
	C$lab_5.c$532$6$210 ==.
;	C:\Users\gerlig\Documents\School\LITEC\LAB5\lab-5.c:532: lcd_print("%i", var);
	mov	r6,a
	mov	r4,a
	mov	r5,#0x00
	push	ar6
	push	ar5
	push	ar4
	push	ar4
	push	ar5
	mov	a,#___str_21
	push	acc
	mov	a,#(___str_21 >> 8)
	push	acc
	mov	a,#0x80
	push	acc
	lcall	_lcd_print
	mov	a,sp
	add	a,#0xfb
	mov	sp,a
	pop	ar4
	pop	ar5
	C$lab_5.c$536$4$204 ==.
;	C:\Users\gerlig\Documents\School\LITEC\LAB5\lab-5.c:536: printf("Desired Gain: %i", var);
	push	ar4
	push	ar5
	mov	a,#___str_22
	push	acc
	mov	a,#(___str_22 >> 8)
	push	acc
	mov	a,#0x80
	push	acc
	lcall	_printf
	mov	a,sp
	add	a,#0xfb
	mov	sp,a
	C$lab_5.c$537$4$204 ==.
;	C:\Users\gerlig\Documents\School\LITEC\LAB5\lab-5.c:537: wait();
	lcall	_wait
	pop	ar6
	C$lab_5.c$538$4$204 ==.
;	C:\Users\gerlig\Documents\School\LITEC\LAB5\lab-5.c:538: ks = var;
	mov	_ks,r6
	C$lab_5.c$539$1$197 ==.
;	C:\Users\gerlig\Documents\School\LITEC\LAB5\lab-5.c:539: break;
00146$:
	C$lab_5.c$543$1$197 ==.
;	C:\Users\gerlig\Documents\School\LITEC\LAB5\lab-5.c:543: lcd_clear();
	lcall	_lcd_clear
	C$lab_5.c$544$1$197 ==.
;	C:\Users\gerlig\Documents\School\LITEC\LAB5\lab-5.c:544: lcd_print("Pick kdx Gain\nPress a Number\n1: 3 2: 6 3: 9\n4: 12 0: custom");
	mov	a,#___str_23
	push	acc
	mov	a,#(___str_23 >> 8)
	push	acc
	mov	a,#0x80
	push	acc
	lcall	_lcd_print
	dec	sp
	dec	sp
	dec	sp
	C$lab_5.c$545$1$197 ==.
;	C:\Users\gerlig\Documents\School\LITEC\LAB5\lab-5.c:545: while (1) {
00191$:
	C$lab_5.c$546$2$211 ==.
;	C:\Users\gerlig\Documents\School\LITEC\LAB5\lab-5.c:546: keypad = read_keypad();
	lcall	_read_keypad
	mov	r7,dpl
	C$lab_5.c$547$2$211 ==.
;	C:\Users\gerlig\Documents\School\LITEC\LAB5\lab-5.c:547: pause();    // This pauses for 1 PCA0 counter clock cycle (20ms)
	push	ar7
	lcall	_pause
	pop	ar7
	C$lab_5.c$550$2$211 ==.
;	C:\Users\gerlig\Documents\School\LITEC\LAB5\lab-5.c:550: if (keypad != 0xFF) {
	cjne	r7,#0xff,00319$
	sjmp	00191$
00319$:
	C$lab_5.c$551$3$212 ==.
;	C:\Users\gerlig\Documents\School\LITEC\LAB5\lab-5.c:551: while (read_keypad() != 0xFF);
00147$:
	push	ar7
	lcall	_read_keypad
	mov	r6,dpl
	pop	ar7
	cjne	r6,#0xff,00147$
	C$lab_5.c$552$3$212 ==.
;	C:\Users\gerlig\Documents\School\LITEC\LAB5\lab-5.c:552: lcd_clear();
	push	ar7
	lcall	_lcd_clear
	pop	ar7
	C$lab_5.c$553$3$212 ==.
;	C:\Users\gerlig\Documents\School\LITEC\LAB5\lab-5.c:553: if (keypad == 0x31) { //if they enter a 1
	cjne	r7,#0x31,00186$
	C$lab_5.c$554$4$213 ==.
;	C:\Users\gerlig\Documents\School\LITEC\LAB5\lab-5.c:554: lcd_clear();
	lcall	_lcd_clear
	C$lab_5.c$555$4$213 ==.
;	C:\Users\gerlig\Documents\School\LITEC\LAB5\lab-5.c:555: lcd_print("Gain: 3");
	mov	a,#___str_16
	push	acc
	mov	a,#(___str_16 >> 8)
	push	acc
	mov	a,#0x80
	push	acc
	lcall	_lcd_print
	dec	sp
	dec	sp
	dec	sp
	C$lab_5.c$556$4$213 ==.
;	C:\Users\gerlig\Documents\School\LITEC\LAB5\lab-5.c:556: printf("Desired Gain: 3");
	mov	a,#___str_17
	push	acc
	mov	a,#(___str_17 >> 8)
	push	acc
	mov	a,#0x80
	push	acc
	lcall	_printf
	dec	sp
	dec	sp
	dec	sp
	C$lab_5.c$557$4$213 ==.
;	C:\Users\gerlig\Documents\School\LITEC\LAB5\lab-5.c:557: wait();
	lcall	_wait
	C$lab_5.c$558$4$213 ==.
;	C:\Users\gerlig\Documents\School\LITEC\LAB5\lab-5.c:558: kdx = 3;
	mov	_kdx,#0x03
	C$lab_5.c$559$4$213 ==.
;	C:\Users\gerlig\Documents\School\LITEC\LAB5\lab-5.c:559: break;
	ljmp	00193$
00186$:
	C$lab_5.c$561$3$212 ==.
;	C:\Users\gerlig\Documents\School\LITEC\LAB5\lab-5.c:561: else if (keypad == 0x32) { //if they enter a 2
	cjne	r7,#0x32,00183$
	C$lab_5.c$562$4$214 ==.
;	C:\Users\gerlig\Documents\School\LITEC\LAB5\lab-5.c:562: lcd_clear();
	lcall	_lcd_clear
	C$lab_5.c$563$4$214 ==.
;	C:\Users\gerlig\Documents\School\LITEC\LAB5\lab-5.c:563: lcd_print("Gain: 6");
	mov	a,#___str_24
	push	acc
	mov	a,#(___str_24 >> 8)
	push	acc
	mov	a,#0x80
	push	acc
	lcall	_lcd_print
	dec	sp
	dec	sp
	dec	sp
	C$lab_5.c$564$4$214 ==.
;	C:\Users\gerlig\Documents\School\LITEC\LAB5\lab-5.c:564: printf("Desired Gain: 6");
	mov	a,#___str_25
	push	acc
	mov	a,#(___str_25 >> 8)
	push	acc
	mov	a,#0x80
	push	acc
	lcall	_printf
	dec	sp
	dec	sp
	dec	sp
	C$lab_5.c$565$4$214 ==.
;	C:\Users\gerlig\Documents\School\LITEC\LAB5\lab-5.c:565: wait();
	lcall	_wait
	C$lab_5.c$566$4$214 ==.
;	C:\Users\gerlig\Documents\School\LITEC\LAB5\lab-5.c:566: kdx = 6;
	mov	_kdx,#0x06
	C$lab_5.c$567$4$214 ==.
;	C:\Users\gerlig\Documents\School\LITEC\LAB5\lab-5.c:567: break;
	ljmp	00193$
00183$:
	C$lab_5.c$569$3$212 ==.
;	C:\Users\gerlig\Documents\School\LITEC\LAB5\lab-5.c:569: else if (keypad == 0x33) { //if they enter a 3
	cjne	r7,#0x33,00180$
	C$lab_5.c$570$4$215 ==.
;	C:\Users\gerlig\Documents\School\LITEC\LAB5\lab-5.c:570: lcd_clear();
	lcall	_lcd_clear
	C$lab_5.c$571$4$215 ==.
;	C:\Users\gerlig\Documents\School\LITEC\LAB5\lab-5.c:571: lcd_print("Gain: 9");
	mov	a,#___str_26
	push	acc
	mov	a,#(___str_26 >> 8)
	push	acc
	mov	a,#0x80
	push	acc
	lcall	_lcd_print
	dec	sp
	dec	sp
	dec	sp
	C$lab_5.c$572$4$215 ==.
;	C:\Users\gerlig\Documents\School\LITEC\LAB5\lab-5.c:572: printf("Desired Gain: 9");
	mov	a,#___str_27
	push	acc
	mov	a,#(___str_27 >> 8)
	push	acc
	mov	a,#0x80
	push	acc
	lcall	_printf
	dec	sp
	dec	sp
	dec	sp
	C$lab_5.c$573$4$215 ==.
;	C:\Users\gerlig\Documents\School\LITEC\LAB5\lab-5.c:573: wait();
	lcall	_wait
	C$lab_5.c$574$4$215 ==.
;	C:\Users\gerlig\Documents\School\LITEC\LAB5\lab-5.c:574: kdx = 9;
	mov	_kdx,#0x09
	C$lab_5.c$575$4$215 ==.
;	C:\Users\gerlig\Documents\School\LITEC\LAB5\lab-5.c:575: break;
	ljmp	00193$
00180$:
	C$lab_5.c$577$3$212 ==.
;	C:\Users\gerlig\Documents\School\LITEC\LAB5\lab-5.c:577: else if (keypad == 0x34) { //if they enter a 4
	cjne	r7,#0x34,00177$
	C$lab_5.c$578$4$216 ==.
;	C:\Users\gerlig\Documents\School\LITEC\LAB5\lab-5.c:578: lcd_clear();
	lcall	_lcd_clear
	C$lab_5.c$579$4$216 ==.
;	C:\Users\gerlig\Documents\School\LITEC\LAB5\lab-5.c:579: lcd_print("Gain: 12");
	mov	a,#___str_28
	push	acc
	mov	a,#(___str_28 >> 8)
	push	acc
	mov	a,#0x80
	push	acc
	lcall	_lcd_print
	dec	sp
	dec	sp
	dec	sp
	C$lab_5.c$580$4$216 ==.
;	C:\Users\gerlig\Documents\School\LITEC\LAB5\lab-5.c:580: printf("Desired Gain: 12");
	mov	a,#___str_29
	push	acc
	mov	a,#(___str_29 >> 8)
	push	acc
	mov	a,#0x80
	push	acc
	lcall	_printf
	dec	sp
	dec	sp
	dec	sp
	C$lab_5.c$581$4$216 ==.
;	C:\Users\gerlig\Documents\School\LITEC\LAB5\lab-5.c:581: wait();
	lcall	_wait
	C$lab_5.c$582$4$216 ==.
;	C:\Users\gerlig\Documents\School\LITEC\LAB5\lab-5.c:582: kdx = 12;
	mov	_kdx,#0x0c
	C$lab_5.c$583$4$216 ==.
;	C:\Users\gerlig\Documents\School\LITEC\LAB5\lab-5.c:583: break;
	ljmp	00193$
00177$:
	C$lab_5.c$585$3$212 ==.
;	C:\Users\gerlig\Documents\School\LITEC\LAB5\lab-5.c:585: else if (keypad == 0x30) { //if they enter a 0
	cjne	r7,#0x30,00330$
	sjmp	00331$
00330$:
	ljmp	00191$
00331$:
	C$lab_5.c$587$4$217 ==.
;	C:\Users\gerlig\Documents\School\LITEC\LAB5\lab-5.c:587: lcd_clear();
	lcall	_lcd_clear
	C$lab_5.c$588$4$217 ==.
;	C:\Users\gerlig\Documents\School\LITEC\LAB5\lab-5.c:588: lcd_print("Enter your number\nStart with 0s\nif need be\nso 45 is 045");
	mov	a,#___str_20
	push	acc
	mov	a,#(___str_20 >> 8)
	push	acc
	mov	a,#0x80
	push	acc
	lcall	_lcd_print
	dec	sp
	dec	sp
	dec	sp
	C$lab_5.c$589$4$217 ==.
;	C:\Users\gerlig\Documents\School\LITEC\LAB5\lab-5.c:589: while (1) {
00156$:
	C$lab_5.c$590$5$218 ==.
;	C:\Users\gerlig\Documents\School\LITEC\LAB5\lab-5.c:590: keypad = read_keypad();
	lcall	_read_keypad
	mov	r7,dpl
	C$lab_5.c$591$5$218 ==.
;	C:\Users\gerlig\Documents\School\LITEC\LAB5\lab-5.c:591: pause();
	push	ar7
	lcall	_pause
	pop	ar7
	C$lab_5.c$592$5$218 ==.
;	C:\Users\gerlig\Documents\School\LITEC\LAB5\lab-5.c:592: if (keypad != 0xFF) {
	cjne	r7,#0xff,00332$
	sjmp	00156$
00332$:
	C$lab_5.c$593$6$219 ==.
;	C:\Users\gerlig\Documents\School\LITEC\LAB5\lab-5.c:593: while (read_keypad() != 0xFF);
00150$:
	push	ar7
	lcall	_read_keypad
	mov	r6,dpl
	pop	ar7
	cjne	r6,#0xff,00150$
	C$lab_5.c$594$6$219 ==.
;	C:\Users\gerlig\Documents\School\LITEC\LAB5\lab-5.c:594: lcd_clear();
	push	ar7
	lcall	_lcd_clear
	pop	ar7
	C$lab_5.c$595$6$219 ==.
;	C:\Users\gerlig\Documents\School\LITEC\LAB5\lab-5.c:595: var = (keypad - 0x30) * 100;
	mov	a,r7
	add	a,#0xd0
	mov	b,#0x64
	mul	ab
	C$lab_5.c$596$6$219 ==.
;	C:\Users\gerlig\Documents\School\LITEC\LAB5\lab-5.c:596: lcd_print("%i", var);
	mov	r6,a
	mov	r4,a
	mov	r5,#0x00
	push	ar6
	push	ar4
	push	ar5
	mov	a,#___str_21
	push	acc
	mov	a,#(___str_21 >> 8)
	push	acc
	mov	a,#0x80
	push	acc
	lcall	_lcd_print
	mov	a,sp
	add	a,#0xfb
	mov	sp,a
	pop	ar6
	C$lab_5.c$600$4$217 ==.
;	C:\Users\gerlig\Documents\School\LITEC\LAB5\lab-5.c:600: while (1) {
00164$:
	C$lab_5.c$601$5$220 ==.
;	C:\Users\gerlig\Documents\School\LITEC\LAB5\lab-5.c:601: keypad = read_keypad();
	push	ar6
	lcall	_read_keypad
	mov	r7,dpl
	pop	ar6
	C$lab_5.c$602$5$220 ==.
;	C:\Users\gerlig\Documents\School\LITEC\LAB5\lab-5.c:602: pause();
	push	ar7
	push	ar6
	lcall	_pause
	pop	ar6
	pop	ar7
	C$lab_5.c$603$5$220 ==.
;	C:\Users\gerlig\Documents\School\LITEC\LAB5\lab-5.c:603: if (keypad != 0xFF) {
	cjne	r7,#0xff,00335$
	sjmp	00164$
00335$:
	C$lab_5.c$604$6$221 ==.
;	C:\Users\gerlig\Documents\School\LITEC\LAB5\lab-5.c:604: while (read_keypad() != 0xFF);
00158$:
	push	ar7
	push	ar6
	lcall	_read_keypad
	mov	r5,dpl
	pop	ar6
	pop	ar7
	cjne	r5,#0xff,00158$
	C$lab_5.c$605$6$221 ==.
;	C:\Users\gerlig\Documents\School\LITEC\LAB5\lab-5.c:605: lcd_clear();
	push	ar7
	push	ar6
	lcall	_lcd_clear
	pop	ar6
	pop	ar7
	C$lab_5.c$606$6$221 ==.
;	C:\Users\gerlig\Documents\School\LITEC\LAB5\lab-5.c:606: var = var + ((keypad - 0x30) * 10);
	mov	a,r7
	add	a,#0xd0
	mov	b,#0x0a
	mul	ab
	add	a,r6
	C$lab_5.c$607$6$221 ==.
;	C:\Users\gerlig\Documents\School\LITEC\LAB5\lab-5.c:607: lcd_print("%i", var);
	mov	r6,a
	mov	r4,a
	mov	r5,#0x00
	push	ar6
	push	ar4
	push	ar5
	mov	a,#___str_21
	push	acc
	mov	a,#(___str_21 >> 8)
	push	acc
	mov	a,#0x80
	push	acc
	lcall	_lcd_print
	mov	a,sp
	add	a,#0xfb
	mov	sp,a
	pop	ar6
	C$lab_5.c$611$4$217 ==.
;	C:\Users\gerlig\Documents\School\LITEC\LAB5\lab-5.c:611: while (1) {
00172$:
	C$lab_5.c$612$5$222 ==.
;	C:\Users\gerlig\Documents\School\LITEC\LAB5\lab-5.c:612: keypad = read_keypad();
	push	ar6
	lcall	_read_keypad
	mov	r7,dpl
	pop	ar6
	C$lab_5.c$613$5$222 ==.
;	C:\Users\gerlig\Documents\School\LITEC\LAB5\lab-5.c:613: pause();
	push	ar7
	push	ar6
	lcall	_pause
	pop	ar6
	pop	ar7
	C$lab_5.c$614$5$222 ==.
;	C:\Users\gerlig\Documents\School\LITEC\LAB5\lab-5.c:614: if (keypad != 0xFF) {
	cjne	r7,#0xff,00338$
	sjmp	00172$
00338$:
	C$lab_5.c$615$6$223 ==.
;	C:\Users\gerlig\Documents\School\LITEC\LAB5\lab-5.c:615: while (read_keypad() != 0xFF);
00166$:
	push	ar7
	push	ar6
	lcall	_read_keypad
	mov	r5,dpl
	pop	ar6
	pop	ar7
	cjne	r5,#0xff,00166$
	C$lab_5.c$616$6$223 ==.
;	C:\Users\gerlig\Documents\School\LITEC\LAB5\lab-5.c:616: lcd_clear();
	push	ar7
	push	ar6
	lcall	_lcd_clear
	pop	ar6
	pop	ar7
	C$lab_5.c$617$6$223 ==.
;	C:\Users\gerlig\Documents\School\LITEC\LAB5\lab-5.c:617: var = var + (keypad - 0x30);
	mov	a,r7
	add	a,#0xd0
	add	a,r6
	C$lab_5.c$618$6$223 ==.
;	C:\Users\gerlig\Documents\School\LITEC\LAB5\lab-5.c:618: lcd_print("%i", var);
	mov	r6,a
	mov	r5,a
	mov	r7,#0x00
	push	ar7
	push	ar6
	push	ar5
	push	ar5
	push	ar7
	mov	a,#___str_21
	push	acc
	mov	a,#(___str_21 >> 8)
	push	acc
	mov	a,#0x80
	push	acc
	lcall	_lcd_print
	mov	a,sp
	add	a,#0xfb
	mov	sp,a
	pop	ar5
	pop	ar6
	pop	ar7
	C$lab_5.c$622$4$217 ==.
;	C:\Users\gerlig\Documents\School\LITEC\LAB5\lab-5.c:622: printf("Desired Gain: %i", var);
	push	ar6
	push	ar5
	push	ar7
	mov	a,#___str_22
	push	acc
	mov	a,#(___str_22 >> 8)
	push	acc
	mov	a,#0x80
	push	acc
	lcall	_printf
	mov	a,sp
	add	a,#0xfb
	mov	sp,a
	C$lab_5.c$623$4$217 ==.
;	C:\Users\gerlig\Documents\School\LITEC\LAB5\lab-5.c:623: wait();
	lcall	_wait
	pop	ar6
	C$lab_5.c$624$4$217 ==.
;	C:\Users\gerlig\Documents\School\LITEC\LAB5\lab-5.c:624: kdx = var;
	mov	_kdx,r6
	C$lab_5.c$625$1$197 ==.
;	C:\Users\gerlig\Documents\School\LITEC\LAB5\lab-5.c:625: break;
00193$:
	C$lab_5.c$629$1$197 ==.
	XG$set_gains$0$0 ==.
	ret
	.area CSEG    (CODE)
	.area CONST   (CODE)
Flab_5$__str_0$0$0 == .
___str_0:
	.db 0x0a
	.ascii "Type digits; end w/#"
	.db 0x00
Flab_5$__str_1$0$0 == .
___str_1:
	.ascii "     %c%c%c%c%c"
	.db 0x00
Flab_5$__str_2$0$0 == .
___str_2:
	.ascii "%c"
	.db 0x00
Flab_5$__str_3$0$0 == .
___str_3:
	.ascii "Please put me"
	.db 0x0a
	.ascii "on a flat"
	.db 0x0a
	.ascii "surface! Then"
	.db 0x0a
	.ascii "press 1"
	.db 0x00
Flab_5$__str_4$0$0 == .
___str_4:
	.ascii "Calibrated!"
	.db 0x00
Flab_5$__str_5$0$0 == .
___str_5:
	.ascii "X0: %i, Y0: %i"
	.db 0x00
Flab_5$__str_6$0$0 == .
___str_6:
	.ascii "1: Right"
	.db 0x0a
	.ascii "2: Left"
	.db 0x00
Flab_5$__str_7$0$0 == .
___str_7:
	.ascii "Right"
	.db 0x00
Flab_5$__str_8$0$0 == .
___str_8:
	.ascii "Left"
	.db 0x00
Flab_5$__str_9$0$0 == .
___str_9:
	.ascii "x: %i y: %i"
	.db 0x0a
	.ascii "Drive: %i Steering: %i"
	.db 0x00
Flab_5$__str_10$0$0 == .
___str_10:
	.ascii "%i"
	.db 0x09
	.ascii "%i"
	.db 0x09
	.ascii "%i"
	.db 0x09
	.ascii "%i"
	.db 0x0d
	.db 0x0a
	.db 0x00
Flab_5$__str_11$0$0 == .
___str_11:
	.ascii "Pick Gain"
	.db 0x0a
	.ascii "Press a Number"
	.db 0x0a
	.ascii "1: 1 2: 2 3: 3"
	.db 0x0a
	.ascii "4: 4 0: custom"
	.db 0x00
Flab_5$__str_12$0$0 == .
___str_12:
	.ascii "Gain: 1"
	.db 0x00
Flab_5$__str_13$0$0 == .
___str_13:
	.ascii "Desired Gain: 1"
	.db 0x00
Flab_5$__str_14$0$0 == .
___str_14:
	.ascii "Gain: 2"
	.db 0x00
Flab_5$__str_15$0$0 == .
___str_15:
	.ascii "Desired Gain: 2"
	.db 0x00
Flab_5$__str_16$0$0 == .
___str_16:
	.ascii "Gain: 3"
	.db 0x00
Flab_5$__str_17$0$0 == .
___str_17:
	.ascii "Desired Gain: 3"
	.db 0x00
Flab_5$__str_18$0$0 == .
___str_18:
	.ascii "Gain: 4"
	.db 0x00
Flab_5$__str_19$0$0 == .
___str_19:
	.ascii "Desired Gain: 4"
	.db 0x00
Flab_5$__str_20$0$0 == .
___str_20:
	.ascii "Enter your number"
	.db 0x0a
	.ascii "Start with 0s"
	.db 0x0a
	.ascii "if need be"
	.db 0x0a
	.ascii "so 45 is 045"
	.db 0x00
Flab_5$__str_21$0$0 == .
___str_21:
	.ascii "%i"
	.db 0x00
Flab_5$__str_22$0$0 == .
___str_22:
	.ascii "Desired Gain: %i"
	.db 0x00
Flab_5$__str_23$0$0 == .
___str_23:
	.ascii "Pick kdx Gain"
	.db 0x0a
	.ascii "Press a Number"
	.db 0x0a
	.ascii "1: 3 2: 6 3: 9"
	.db 0x0a
	.ascii "4: 12 0: custom"
	.db 0x00
Flab_5$__str_24$0$0 == .
___str_24:
	.ascii "Gain: 6"
	.db 0x00
Flab_5$__str_25$0$0 == .
___str_25:
	.ascii "Desired Gain: 6"
	.db 0x00
Flab_5$__str_26$0$0 == .
___str_26:
	.ascii "Gain: 9"
	.db 0x00
Flab_5$__str_27$0$0 == .
___str_27:
	.ascii "Desired Gain: 9"
	.db 0x00
Flab_5$__str_28$0$0 == .
___str_28:
	.ascii "Gain: 12"
	.db 0x00
Flab_5$__str_29$0$0 == .
___str_29:
	.ascii "Desired Gain: 12"
	.db 0x00
	.area XINIT   (CODE)
	.area CABS    (ABS,CODE)
