ASxxxx Linker V03.00 + NoICE + sdld,  page 1.
Hexadecimal  [32-Bits]

Area                                    Addr        Size        Decimal Bytes (Attributes)
--------------------------------        ----        ----        ------- ----- ------------
CABS                                00000000    00000000 =           0. bytes (ABS,CON,CODE)

      Value  Global                              Global Defined In Module
      -----  --------------------------------   ------------------------
C:   00000000  l_BIT_BANK                      
C:   00000000  l_CABS                          
C:   00000000  l_GSINIT1                       
C:   00000000  l_GSINIT5                       
C:   00000000  l_IABS                          
C:   00000000  l_PSEG                          
C:   00000000  l_REG_BANK_1                    
C:   00000000  l_REG_BANK_2                    
C:   00000000  l_REG_BANK_3                    
C:   00000000  l_RSEG                          
C:   00000000  l_RSEG0                         
C:   00000000  l_RSEG1                         
C:   00000000  l_XABS                          
C:   00000000  l_XINIT                         
C:   00000000  l_XISEG                         
C:   00000000  l__CODE                         
C:   00000000  s_BSEG                          
C:   00000000  s_CABS                          
C:   00000000  s_DSEG                          
C:   00000000  s_HOME                          
C:   00000000  s_IABS                          
C:   00000000  s_REG_BANK_0                    
C:   00000000  s_RSEG                          
C:   00000000  s_RSEG0                         
C:   00000000  s_RSEG1                         
C:   00000000  s_XABS                          
C:   00000001  s_PSEG                          
C:   00000001  s_XSEG                          
C:   00000002  l_BSEG_BYTES                    
C:   00000003  l_GSFINAL                       
C:   00000003  l_GSINIT0                       
C:   00000006  l_ISEG                          
C:   00000006  l_OSEG                          
C:   00000008  l_REG_BANK_0                    
C:   00000008  s_REG_BANK_1                    
C:   0000000A  l_BSEG                          
C:   0000000A  l_GSINIT2                       
C:   00000010  s_REG_BANK_2                    
C:   00000011  s_OSEG                          
C:   00000017  s_ISEG                          
C:   00000018  s_BIT_BANK                      
C:   00000018  s_REG_BANK_3                    
C:   00000020  s_BSEG_BYTES                    
C:   00000020  s__CODE                         
C:   00000022  l_GSINIT3                       
C:   0000002A  l_GSINIT4                       
C:   0000004D  l_GSINIT                        
C:   00000050  l_XSEG                          
C:   00000051  l_HOME                          
C:   00000051  s_GSINIT0                       
ASxxxx Linker V03.00 + NoICE + sdld,  page 2.
Hexadecimal  [32-Bits]

Area                                    Addr        Size        Decimal Bytes (Attributes)
--------------------------------        ----        ----        ------- ----- ------------
CABS                                00000000    00000000 =           0. bytes (ABS,CON,CODE)

      Value  Global                              Global Defined In Module
      -----  --------------------------------   ------------------------
C:   00000051  s_XISEG                         
C:   00000054  s_GSINIT1                       
C:   00000054  s_GSINIT2                       
C:   0000005E  s_GSINIT3                       
C:   0000007D  l_DSEG                          
C:   00000080  l_SSEG                          
C:   00000080  s_GSINIT4                       
C:   00000080  s_SSEG                          
C:   000000AA  s_GSINIT                        
C:   000000AA  s_GSINIT5                       
C:   000000F7  s_GSFINAL                       
C:   000000FA  s_CSEG                          
C:   00000100  l_IRAM                          
C:   00000233  l_CONST                         
C:   00001878  l_CSEG                          
C:   00001972  s_CONST                         
C:   00001BA5  s_XINIT                         

ASxxxx Linker V03.00 + NoICE + sdld,  page 3.
Hexadecimal  [32-Bits]

Area                                    Addr        Size        Decimal Bytes (Attributes)
--------------------------------        ----        ----        ------- ----- ------------
.  .ABS.                            00000000    00000000 =           0. bytes (ABS,CON)

      Value  Global                              Global Defined In Module
      -----  --------------------------------   ------------------------
     00000000  .__.ABS.                           _startup
     00000080  G$P0$0$0                           lab_5
     00000080  G$P0_0$0$0                         lab_5
     00000080  _P0                                lab_5
     00000080  _P0_0                              lab_5
     00000081  G$P0_1$0$0                         lab_5
     00000081  G$SP$0$0                           lab_5
     00000081  _P0_1                              lab_5
     00000081  _SP                                lab_5
     00000082  G$DPL$0$0                          lab_5
     00000082  G$P0_2$0$0                         lab_5
     00000082  _DPL                               lab_5
     00000082  _P0_2                              lab_5
     00000083  G$BUS_SCL$0$0                      lab_5
     00000083  G$DPH$0$0                          lab_5
     00000083  G$P0_3$0$0                         lab_5
     00000083  _BUS_SCL                           lab_5
     00000083  _DPH                               lab_5
     00000083  _P0_3                              lab_5
     00000084  G$P0_4$0$0                         lab_5
     00000084  G$P4$0$0                           lab_5
     00000084  _P0_4                              lab_5
     00000084  _P4                                lab_5
     00000085  G$P0_5$0$0                         lab_5
     00000085  G$P5$0$0                           lab_5
     00000085  _P0_5                              lab_5
     00000085  _P5                                lab_5
     00000086  G$P0_6$0$0                         lab_5
     00000086  G$P6$0$0                           lab_5
     00000086  _P0_6                              lab_5
     00000086  _P6                                lab_5
     00000087  G$P0_7$0$0                         lab_5
     00000087  G$PCON$0$0                         lab_5
     00000087  _P0_7                              lab_5
     00000087  _PCON                              lab_5
     00000088  G$IT0$0$0                          lab_5
     00000088  G$TCON$0$0                         lab_5
     00000088  _IT0                               lab_5
     00000088  _TCON                              lab_5
     00000089  G$IE0$0$0                          lab_5
     00000089  G$TMOD$0$0                         lab_5
     00000089  _IE0                               lab_5
     00000089  _TMOD                              lab_5
     0000008A  G$IT1$0$0                          lab_5
     0000008A  G$TL0$0$0                          lab_5
     0000008A  _IT1                               lab_5
     0000008A  _TL0                               lab_5
     0000008B  G$IE1$0$0                          lab_5
     0000008B  G$TL1$0$0                          lab_5
     0000008B  _IE1                               lab_5
ASxxxx Linker V03.00 + NoICE + sdld,  page 4.
Hexadecimal  [32-Bits]

Area                                    Addr        Size        Decimal Bytes (Attributes)
--------------------------------        ----        ----        ------- ----- ------------
.  .ABS.                            00000000    00000000 =           0. bytes (ABS,CON)

      Value  Global                              Global Defined In Module
      -----  --------------------------------   ------------------------
     0000008B  _TL1                               lab_5
     0000008C  G$TH0$0$0                          lab_5
     0000008C  G$TR0$0$0                          lab_5
     0000008C  _TH0                               lab_5
     0000008C  _TR0                               lab_5
     0000008D  G$TF0$0$0                          lab_5
     0000008D  G$TH1$0$0                          lab_5
     0000008D  _TF0                               lab_5
     0000008D  _TH1                               lab_5
     0000008E  G$CKCON$0$0                        lab_5
     0000008E  G$TR1$0$0                          lab_5
     0000008E  _CKCON                             lab_5
     0000008E  _TR1                               lab_5
     0000008F  G$PSCTL$0$0                        lab_5
     0000008F  G$TF1$0$0                          lab_5
     0000008F  _PSCTL                             lab_5
     0000008F  _TF1                               lab_5
     00000090  G$P1$0$0                           lab_5
     00000090  G$P1_0$0$0                         lab_5
     00000090  _P1                                lab_5
     00000090  _P1_0                              lab_5
     00000091  G$P1_1$0$0                         lab_5
     00000091  G$TMR3CN$0$0                       lab_5
     00000091  _P1_1                              lab_5
     00000091  _TMR3CN                            lab_5
     00000092  G$P1_2$0$0                         lab_5
     00000092  G$TMR3RLL$0$0                      lab_5
     00000092  _P1_2                              lab_5
     00000092  _TMR3RLL                           lab_5
     00000093  G$P1_3$0$0                         lab_5
     00000093  G$TMR3RLH$0$0                      lab_5
     00000093  _P1_3                              lab_5
     00000093  _TMR3RLH                           lab_5
     00000094  G$P1_4$0$0                         lab_5
     00000094  G$TMR3L$0$0                        lab_5
     00000094  _P1_4                              lab_5
     00000094  _TMR3L                             lab_5
     00000095  G$P1_5$0$0                         lab_5
     00000095  G$TMR3H$0$0                        lab_5
     00000095  _P1_5                              lab_5
     00000095  _TMR3H                             lab_5
     00000096  G$P1_6$0$0                         lab_5
     00000096  G$P7$0$0                           lab_5
     00000096  _P1_6                              lab_5
     00000096  _P7                                lab_5
     00000097  G$P1_7$0$0                         lab_5
     00000097  _P1_7                              lab_5
     00000098  G$RI$0$0                           lab_5
     00000098  G$RI0$0$0                          lab_5
     00000098  G$SCON$0$0                         lab_5
     00000098  G$SCON0$0$0                        lab_5
ASxxxx Linker V03.00 + NoICE + sdld,  page 5.
Hexadecimal  [32-Bits]

Area                                    Addr        Size        Decimal Bytes (Attributes)
--------------------------------        ----        ----        ------- ----- ------------
.  .ABS.                            00000000    00000000 =           0. bytes (ABS,CON)

      Value  Global                              Global Defined In Module
      -----  --------------------------------   ------------------------
     00000098  _RI                                lab_5
     00000098  _RI0                               lab_5
     00000098  _SCON                              lab_5
     00000098  _SCON0                             lab_5
     00000099  G$SBUF$0$0                         lab_5
     00000099  G$SBUF0$0$0                        lab_5
     00000099  G$TI$0$0                           lab_5
     00000099  G$TI0$0$0                          lab_5
     00000099  _SBUF                              lab_5
     00000099  _SBUF0                             lab_5
     00000099  _TI                                lab_5
     00000099  _TI0                               lab_5
     0000009A  G$RB8$0$0                          lab_5
     0000009A  G$RB80$0$0                         lab_5
     0000009A  G$SPI0CFG$0$0                      lab_5
     0000009A  _RB8                               lab_5
     0000009A  _RB80                              lab_5
     0000009A  _SPI0CFG                           lab_5
     0000009B  G$SPI0DAT$0$0                      lab_5
     0000009B  G$TB8$0$0                          lab_5
     0000009B  G$TB80$0$0                         lab_5
     0000009B  _SPI0DAT                           lab_5
     0000009B  _TB8                               lab_5
     0000009B  _TB80                              lab_5
     0000009C  G$ADC1$0$0                         lab_5
     0000009C  G$REN$0$0                          lab_5
     0000009C  G$REN0$0$0                         lab_5
     0000009C  _ADC1                              lab_5
     0000009C  _REN                               lab_5
     0000009C  _REN0                              lab_5
     0000009D  G$MCE0$0$0                         lab_5
     0000009D  G$SM2$0$0                          lab_5
     0000009D  G$SM20$0$0                         lab_5
     0000009D  G$SPI0CKR$0$0                      lab_5
     0000009D  _MCE0                              lab_5
     0000009D  _SM2                               lab_5
     0000009D  _SM20                              lab_5
     0000009D  _SPI0CKR                           lab_5
     0000009E  G$CPT0CN$0$0                       lab_5
     0000009E  G$SM1$0$0                          lab_5
     0000009E  G$SM10$0$0                         lab_5
     0000009E  _CPT0CN                            lab_5
     0000009E  _SM1                               lab_5
     0000009E  _SM10                              lab_5
     0000009F  G$CPT1CN$0$0                       lab_5
     0000009F  G$S0MODE$0$0                       lab_5
     0000009F  G$SM0$0$0                          lab_5
     0000009F  G$SM00$0$0                         lab_5
     0000009F  _CPT1CN                            lab_5
     0000009F  _S0MODE                            lab_5
     0000009F  _SM0                               lab_5
ASxxxx Linker V03.00 + NoICE + sdld,  page 6.
Hexadecimal  [32-Bits]

Area                                    Addr        Size        Decimal Bytes (Attributes)
--------------------------------        ----        ----        ------- ----- ------------
.  .ABS.                            00000000    00000000 =           0. bytes (ABS,CON)

      Value  Global                              Global Defined In Module
      -----  --------------------------------   ------------------------
     0000009F  _SM00                              lab_5
     000000A0  G$P2$0$0                           lab_5
     000000A0  G$P2_0$0$0                         lab_5
     000000A0  _P2                                lab_5
     000000A0  _P2_0                              lab_5
     000000A1  G$EMI0TC$0$0                       lab_5
     000000A1  G$P2_1$0$0                         lab_5
     000000A1  _EMI0TC                            lab_5
     000000A1  _P2_1                              lab_5
     000000A2  G$P2_2$0$0                         lab_5
     000000A2  _P2_2                              lab_5
     000000A3  G$BILED1$0$0                       lab_5
     000000A3  G$EMI0CF$0$0                       lab_5
     000000A3  G$P2_3$0$0                         lab_5
     000000A3  _BILED1                            lab_5
     000000A3  _EMI0CF                            lab_5
     000000A3  _P2_3                              lab_5
     000000A4  G$P0MDOUT$0$0                      lab_5
     000000A4  G$P2_4$0$0                         lab_5
     000000A4  G$PRT0CF$0$0                       lab_5
     000000A4  _P0MDOUT                           lab_5
     000000A4  _P2_4                              lab_5
     000000A4  _PRT0CF                            lab_5
     000000A5  G$BILED0$0$0                       lab_5
     000000A5  G$P1MDOUT$0$0                      lab_5
     000000A5  G$P2_5$0$0                         lab_5
     000000A5  G$PRT1CF$0$0                       lab_5
     000000A5  _BILED0                            lab_5
     000000A5  _P1MDOUT                           lab_5
     000000A5  _P2_5                              lab_5
     000000A5  _PRT1CF                            lab_5
     000000A6  G$P2MDOUT$0$0                      lab_5
     000000A6  G$P2_6$0$0                         lab_5
     000000A6  G$PRT2CF$0$0                       lab_5
     000000A6  _P2MDOUT                           lab_5
     000000A6  _P2_6                              lab_5
     000000A6  _PRT2CF                            lab_5
     000000A7  G$P2_7$0$0                         lab_5
     000000A7  G$P3MDOUT$0$0                      lab_5
     000000A7  G$PRT3CF$0$0                       lab_5
     000000A7  _P2_7                              lab_5
     000000A7  _P3MDOUT                           lab_5
     000000A7  _PRT3CF                            lab_5
     000000A8  G$EX0$0$0                          lab_5
     000000A8  G$IE$0$0                           lab_5
     000000A8  _EX0                               lab_5
     000000A8  _IE                                lab_5
     000000A9  G$ET0$0$0                          lab_5
     000000A9  G$SADDR0$0$0                       lab_5
     000000A9  _ET0                               lab_5
     000000A9  _SADDR0                            lab_5
ASxxxx Linker V03.00 + NoICE + sdld,  page 7.
Hexadecimal  [32-Bits]

Area                                    Addr        Size        Decimal Bytes (Attributes)
--------------------------------        ----        ----        ------- ----- ------------
.  .ABS.                            00000000    00000000 =           0. bytes (ABS,CON)

      Value  Global                              Global Defined In Module
      -----  --------------------------------   ------------------------
     000000AA  G$ADC1CN$0$0                       lab_5
     000000AA  G$EX1$0$0                          lab_5
     000000AA  _ADC1CN                            lab_5
     000000AA  _EX1                               lab_5
     000000AB  G$ADC1CF$0$0                       lab_5
     000000AB  G$ET1$0$0                          lab_5
     000000AB  _ADC1CF                            lab_5
     000000AB  _ET1                               lab_5
     000000AC  G$AMX1SL$0$0                       lab_5
     000000AC  G$ES$0$0                           lab_5
     000000AC  G$ES0$0$0                          lab_5
     000000AC  _AMX1SL                            lab_5
     000000AC  _ES                                lab_5
     000000AC  _ES0                               lab_5
     000000AD  G$ET2$0$0                          lab_5
     000000AD  G$P3IF$0$0                         lab_5
     000000AD  _ET2                               lab_5
     000000AD  _P3IF                              lab_5
     000000AE  G$SADEN1$0$0                       lab_5
     000000AE  _SADEN1                            lab_5
     000000AF  G$EA$0$0                           lab_5
     000000AF  G$EMI0CN$0$0                       lab_5
     000000AF  G$_XPAGE$0$0                       lab_5
     000000AF  _EA                                lab_5
     000000AF  _EMI0CN                            lab_5
     000000AF  __XPAGE                            lab_5
     000000B0  G$P3$0$0                           lab_5
     000000B0  G$P3_0$0$0                         lab_5
     000000B0  _P3                                lab_5
     000000B0  _P3_0                              lab_5
     000000B1  G$OSCXCN$0$0                       lab_5
     000000B1  G$P3_1$0$0                         lab_5
     000000B1  _OSCXCN                            lab_5
     000000B1  _P3_1                              lab_5
     000000B2  G$OSCICN$0$0                       lab_5
     000000B2  G$P3_2$0$0                         lab_5
     000000B2  _OSCICN                            lab_5
     000000B2  _P3_2                              lab_5
     000000B3  G$P3_3$0$0                         lab_5
     000000B3  _P3_3                              lab_5
     000000B4  G$P3_4$0$0                         lab_5
     000000B4  _P3_4                              lab_5
     000000B5  G$P3_5$0$0                         lab_5
     000000B5  G$P74OUT$0$0                       lab_5
     000000B5  _P3_5                              lab_5
     000000B5  _P74OUT                            lab_5
     000000B6  G$FLSCL$0$0                        lab_5
     000000B6  G$P3_6$0$0                         lab_5
     000000B6  _FLSCL                             lab_5
     000000B6  _P3_6                              lab_5
     000000B7  G$FLACL$0$0                        lab_5
ASxxxx Linker V03.00 + NoICE + sdld,  page 8.
Hexadecimal  [32-Bits]

Area                                    Addr        Size        Decimal Bytes (Attributes)
--------------------------------        ----        ----        ------- ----- ------------
.  .ABS.                            00000000    00000000 =           0. bytes (ABS,CON)

      Value  Global                              Global Defined In Module
      -----  --------------------------------   ------------------------
     000000B7  G$P3_7$0$0                         lab_5
     000000B7  G$run$0$0                          lab_5
     000000B7  _FLACL                             lab_5
     000000B7  _P3_7                              lab_5
     000000B7  _run                               lab_5
     000000B8  G$IP$0$0                           lab_5
     000000B8  G$PX0$0$0                          lab_5
     000000B8  _IP                                lab_5
     000000B8  _PX0                               lab_5
     000000B9  G$PT0$0$0                          lab_5
     000000B9  G$SADEN0$0$0                       lab_5
     000000B9  _PT0                               lab_5
     000000B9  _SADEN0                            lab_5
     000000BA  G$AMX0CF$0$0                       lab_5
     000000BA  G$PX1$0$0                          lab_5
     000000BA  _AMX0CF                            lab_5
     000000BA  _PX1                               lab_5
     000000BB  G$AMX0SL$0$0                       lab_5
     000000BB  G$PT1$0$0                          lab_5
     000000BB  _AMX0SL                            lab_5
     000000BB  _PT1                               lab_5
     000000BC  G$ADC0CF$0$0                       lab_5
     000000BC  G$PS$0$0                           lab_5
     000000BC  G$PS0$0$0                          lab_5
     000000BC  _ADC0CF                            lab_5
     000000BC  _PS                                lab_5
     000000BC  _PS0                               lab_5
     000000BD  G$P1MDIN$0$0                       lab_5
     000000BD  G$PT2$0$0                          lab_5
     000000BD  _P1MDIN                            lab_5
     000000BD  _PT2                               lab_5
     000000BE  G$ADC0L$0$0                        lab_5
     000000BE  _ADC0L                             lab_5
     000000BF  G$ADC0H$0$0                        lab_5
     000000BF  _ADC0H                             lab_5
     000000C0  G$BUS_TOE$0$0                      lab_5
     000000C0  G$SMB0CN$0$0                       lab_5
     000000C0  G$SMBTOE$0$0                       lab_5
     000000C0  _BUS_TOE                           lab_5
     000000C0  _SMB0CN                            lab_5
     000000C0  _SMBTOE                            lab_5
     000000C1  G$BUS_FTE$0$0                      lab_5
     000000C1  G$SMB0STA$0$0                      lab_5
     000000C1  G$SMBFTE$0$0                       lab_5
     000000C1  _BUS_FTE                           lab_5
     000000C1  _SMB0STA                           lab_5
     000000C1  _SMBFTE                            lab_5
     000000C2  G$AA$0$0                           lab_5
     000000C2  G$BUS_AA$0$0                       lab_5
     000000C2  G$SMB0DAT$0$0                      lab_5
     000000C2  _AA                                lab_5
ASxxxx Linker V03.00 + NoICE + sdld,  page 9.
Hexadecimal  [32-Bits]

Area                                    Addr        Size        Decimal Bytes (Attributes)
--------------------------------        ----        ----        ------- ----- ------------
.  .ABS.                            00000000    00000000 =           0. bytes (ABS,CON)

      Value  Global                              Global Defined In Module
      -----  --------------------------------   ------------------------
     000000C2  _BUS_AA                            lab_5
     000000C2  _SMB0DAT                           lab_5
     000000C3  G$BUS_INT$0$0                      lab_5
     000000C3  G$SI$0$0                           lab_5
     000000C3  G$SMB0ADR$0$0                      lab_5
     000000C3  _BUS_INT                           lab_5
     000000C3  _SI                                lab_5
     000000C3  _SMB0ADR                           lab_5
     000000C4  G$ADC0GTL$0$0                      lab_5
     000000C4  G$BUS_STOP$0$0                     lab_5
     000000C4  G$STO$0$0                          lab_5
     000000C4  _ADC0GTL                           lab_5
     000000C4  _BUS_STOP                          lab_5
     000000C4  _STO                               lab_5
     000000C5  G$ADC0GTH$0$0                      lab_5
     000000C5  G$BUS_START$0$0                    lab_5
     000000C5  G$STA$0$0                          lab_5
     000000C5  _ADC0GTH                           lab_5
     000000C5  _BUS_START                         lab_5
     000000C5  _STA                               lab_5
     000000C6  G$ADC0LTL$0$0                      lab_5
     000000C6  G$BUS_EN$0$0                       lab_5
     000000C6  G$ENSMB$0$0                        lab_5
     000000C6  _ADC0LTL                           lab_5
     000000C6  _BUS_EN                            lab_5
     000000C6  _ENSMB                             lab_5
     000000C7  G$ADC0LTH$0$0                      lab_5
     000000C7  G$BUSY$0$0                         lab_5
     000000C7  G$BUS_BUSY$0$0                     lab_5
     000000C7  _ADC0LTH                           lab_5
     000000C7  _BUSY                              lab_5
     000000C7  _BUS_BUSY                          lab_5
     000000C8  G$CPRL2$0$0                        lab_5
     000000C8  G$T2CON$0$0                        lab_5
     000000C8  _CPRL2                             lab_5
     000000C8  _T2CON                             lab_5
     000000C9  G$CT2$0$0                          lab_5
     000000C9  G$T4CON$0$0                        lab_5
     000000C9  _CT2                               lab_5
     000000C9  _T4CON                             lab_5
     000000CA  G$RCAP2L$0$0                       lab_5
     000000CA  G$TR2$0$0                          lab_5
     000000CA  _RCAP2L                            lab_5
     000000CA  _TR2                               lab_5
     000000CB  G$EXEN2$0$0                        lab_5
     000000CB  G$RCAP2H$0$0                       lab_5
     000000CB  _EXEN2                             lab_5
     000000CB  _RCAP2H                            lab_5
     000000CC  G$TCLK$0$0                         lab_5
     000000CC  G$TL2$0$0                          lab_5
     000000CC  _TCLK                              lab_5
ASxxxx Linker V03.00 + NoICE + sdld,  page 10.
Hexadecimal  [32-Bits]

Area                                    Addr        Size        Decimal Bytes (Attributes)
--------------------------------        ----        ----        ------- ----- ------------
.  .ABS.                            00000000    00000000 =           0. bytes (ABS,CON)

      Value  Global                              Global Defined In Module
      -----  --------------------------------   ------------------------
     000000CC  _TL2                               lab_5
     000000CD  G$RCLK$0$0                         lab_5
     000000CD  G$TH2$0$0                          lab_5
     000000CD  _RCLK                              lab_5
     000000CD  _TH2                               lab_5
     000000CE  G$EXF2$0$0                         lab_5
     000000CE  _EXF2                              lab_5
     000000CF  G$SMB0CR$0$0                       lab_5
     000000CF  G$TF2$0$0                          lab_5
     000000CF  _SMB0CR                            lab_5
     000000CF  _TF2                               lab_5
     000000D0  G$P$0$0                            lab_5
     000000D0  G$PSW$0$0                          lab_5
     000000D0  _P                                 lab_5
     000000D0  _PSW                               lab_5
     000000D1  G$F1$0$0                           lab_5
     000000D1  G$REF0CN$0$0                       lab_5
     000000D1  _F1                                lab_5
     000000D1  _REF0CN                            lab_5
     000000D2  G$DAC0L$0$0                        lab_5
     000000D2  G$OV$0$0                           lab_5
     000000D2  _DAC0L                             lab_5
     000000D2  _OV                                lab_5
     000000D3  G$DAC0H$0$0                        lab_5
     000000D3  G$RS0$0$0                          lab_5
     000000D3  _DAC0H                             lab_5
     000000D3  _RS0                               lab_5
     000000D4  G$DAC0CN$0$0                       lab_5
     000000D4  G$RS1$0$0                          lab_5
     000000D4  _DAC0CN                            lab_5
     000000D4  _RS1                               lab_5
     000000D5  G$DAC1L$0$0                        lab_5
     000000D5  G$F0$0$0                           lab_5
     000000D5  _DAC1L                             lab_5
     000000D5  _F0                                lab_5
     000000D6  G$AC$0$0                           lab_5
     000000D6  G$DAC1H$0$0                        lab_5
     000000D6  _AC                                lab_5
     000000D6  _DAC1H                             lab_5
     000000D7  G$CY$0$0                           lab_5
     000000D7  G$DAC1CN$0$0                       lab_5
     000000D7  _CY                                lab_5
     000000D7  _DAC1CN                            lab_5
     000000D8  G$CCF0$0$0                         lab_5
     000000D8  G$PCA0CN$0$0                       lab_5
     000000D8  _CCF0                              lab_5
     000000D8  _PCA0CN                            lab_5
     000000D9  G$CCF1$0$0                         lab_5
     000000D9  G$PCA0MD$0$0                       lab_5
     000000D9  _CCF1                              lab_5
     000000D9  _PCA0MD                            lab_5
ASxxxx Linker V03.00 + NoICE + sdld,  page 11.
Hexadecimal  [32-Bits]

Area                                    Addr        Size        Decimal Bytes (Attributes)
--------------------------------        ----        ----        ------- ----- ------------
.  .ABS.                            00000000    00000000 =           0. bytes (ABS,CON)

      Value  Global                              Global Defined In Module
      -----  --------------------------------   ------------------------
     000000DA  G$CCF2$0$0                         lab_5
     000000DA  G$PCA0CPM0$0$0                     lab_5
     000000DA  _CCF2                              lab_5
     000000DA  _PCA0CPM0                          lab_5
     000000DB  G$CCF3$0$0                         lab_5
     000000DB  G$PCA0CPM1$0$0                     lab_5
     000000DB  _CCF3                              lab_5
     000000DB  _PCA0CPM1                          lab_5
     000000DC  G$CCF4$0$0                         lab_5
     000000DC  G$PCA0CPM2$0$0                     lab_5
     000000DC  _CCF4                              lab_5
     000000DC  _PCA0CPM2                          lab_5
     000000DD  G$PCA0CPM3$0$0                     lab_5
     000000DD  _PCA0CPM3                          lab_5
     000000DE  G$CR$0$0                           lab_5
     000000DE  G$PCA0CPM4$0$0                     lab_5
     000000DE  _CR                                lab_5
     000000DE  _PCA0CPM4                          lab_5
     000000DF  G$CF$0$0                           lab_5
     000000DF  _CF                                lab_5
     000000E0  G$ACC$0$0                          lab_5
     000000E0  _ACC                               lab_5
     000000E1  G$XBR0$0$0                         lab_5
     000000E1  _XBR0                              lab_5
     000000E2  G$XBR1$0$0                         lab_5
     000000E2  _XBR1                              lab_5
     000000E3  G$XBR2$0$0                         lab_5
     000000E3  _XBR2                              lab_5
     000000E4  G$RCAP4L$0$0                       lab_5
     000000E4  _RCAP4L                            lab_5
     000000E5  G$RCAP4H$0$0                       lab_5
     000000E5  _RCAP4H                            lab_5
     000000E6  G$EIE1$0$0                         lab_5
     000000E6  _EIE1                              lab_5
     000000E7  G$EIE2$0$0                         lab_5
     000000E7  _EIE2                              lab_5
     000000E8  G$AD0LJST$0$0                      lab_5
     000000E8  G$ADC0CN$0$0                       lab_5
     000000E8  G$ADLJST$0$0                       lab_5
     000000E8  _AD0LJST                           lab_5
     000000E8  _ADC0CN                            lab_5
     000000E8  _ADLJST                            lab_5
     000000E9  G$AD0WINT$0$0                      lab_5
     000000E9  G$ADWINT$0$0                       lab_5
     000000E9  G$PCA0L$0$0                        lab_5
     000000E9  _AD0WINT                           lab_5
     000000E9  _ADWINT                            lab_5
     000000E9  _PCA0L                             lab_5
     000000EA  G$AD0CM0$0$0                       lab_5
     000000EA  G$ADSTM0$0$0                       lab_5
     000000EA  G$PCA0CPL0$0$0                     lab_5
ASxxxx Linker V03.00 + NoICE + sdld,  page 12.
Hexadecimal  [32-Bits]

Area                                    Addr        Size        Decimal Bytes (Attributes)
--------------------------------        ----        ----        ------- ----- ------------
.  .ABS.                            00000000    00000000 =           0. bytes (ABS,CON)

      Value  Global                              Global Defined In Module
      -----  --------------------------------   ------------------------
     000000EA  _AD0CM0                            lab_5
     000000EA  _ADSTM0                            lab_5
     000000EA  _PCA0CPL0                          lab_5
     000000EB  G$AD0CM1$0$0                       lab_5
     000000EB  G$ADSTM1$0$0                       lab_5
     000000EB  G$PCA0CPL1$0$0                     lab_5
     000000EB  _AD0CM1                            lab_5
     000000EB  _ADSTM1                            lab_5
     000000EB  _PCA0CPL1                          lab_5
     000000EC  G$AD0BUSY$0$0                      lab_5
     000000EC  G$ADBUSY$0$0                       lab_5
     000000EC  G$PCA0CPL2$0$0                     lab_5
     000000EC  _AD0BUSY                           lab_5
     000000EC  _ADBUSY                            lab_5
     000000EC  _PCA0CPL2                          lab_5
     000000ED  G$AD0INT$0$0                       lab_5
     000000ED  G$ADCINT$0$0                       lab_5
     000000ED  G$PCA0CPL3$0$0                     lab_5
     000000ED  _AD0INT                            lab_5
     000000ED  _ADCINT                            lab_5
     000000ED  _PCA0CPL3                          lab_5
     000000EE  G$AD0TM$0$0                        lab_5
     000000EE  G$ADCTM$0$0                        lab_5
     000000EE  G$PCA0CPL4$0$0                     lab_5
     000000EE  _AD0TM                             lab_5
     000000EE  _ADCTM                             lab_5
     000000EE  _PCA0CPL4                          lab_5
     000000EF  G$AD0EN$0$0                        lab_5
     000000EF  G$ADCEN$0$0                        lab_5
     000000EF  G$RSTSRC$0$0                       lab_5
     000000EF  _AD0EN                             lab_5
     000000EF  _ADCEN                             lab_5
     000000EF  _RSTSRC                            lab_5
     000000F0  G$B$0$0                            lab_5
     000000F0  _B                                 lab_5
     000000F1  G$SCON1$0$0                        lab_5
     000000F1  _SCON1                             lab_5
     000000F2  G$SBUF1$0$0                        lab_5
     000000F2  _SBUF1                             lab_5
     000000F3  G$SADDR1$0$0                       lab_5
     000000F3  _SADDR1                            lab_5
     000000F4  G$TL4$0$0                          lab_5
     000000F4  _TL4                               lab_5
     000000F5  G$TH4$0$0                          lab_5
     000000F5  _B_5                               _gptrget
     000000F5  _TH4                               lab_5
     000000F6  G$EIP1$0$0                         lab_5
     000000F6  _B_6                               _gptrget
     000000F6  _EIP1                              lab_5
     000000F7  G$EIP2$0$0                         lab_5
     000000F7  _B_7                               _gptrget
ASxxxx Linker V03.00 + NoICE + sdld,  page 13.
Hexadecimal  [32-Bits]

Area                                    Addr        Size        Decimal Bytes (Attributes)
--------------------------------        ----        ----        ------- ----- ------------
.  .ABS.                            00000000    00000000 =           0. bytes (ABS,CON)

      Value  Global                              Global Defined In Module
      -----  --------------------------------   ------------------------
     000000F7  _EIP2                              lab_5
     000000F8  G$SPI0CN$0$0                       lab_5
     000000F8  G$SPIEN$0$0                        lab_5
     000000F8  _SPI0CN                            lab_5
     000000F8  _SPIEN                             lab_5
     000000F9  G$MSTEN$0$0                        lab_5
     000000F9  G$PCA0H$0$0                        lab_5
     000000F9  _MSTEN                             lab_5
     000000F9  _PCA0H                             lab_5
     000000FA  G$PCA0CPH0$0$0                     lab_5
     000000FA  G$SLVSEL$0$0                       lab_5
     000000FA  _PCA0CPH0                          lab_5
     000000FA  _SLVSEL                            lab_5
     000000FB  G$PCA0CPH1$0$0                     lab_5
     000000FB  G$TXBSY$0$0                        lab_5
     000000FB  _PCA0CPH1                          lab_5
     000000FB  _TXBSY                             lab_5
     000000FC  G$PCA0CPH2$0$0                     lab_5
     000000FC  G$RXOVRN$0$0                       lab_5
     000000FC  _PCA0CPH2                          lab_5
     000000FC  _RXOVRN                            lab_5
     000000FD  G$MODF$0$0                         lab_5
     000000FD  G$PCA0CPH3$0$0                     lab_5
     000000FD  _MODF                              lab_5
     000000FD  _PCA0CPH3                          lab_5
     000000FE  G$PCA0CPH4$0$0                     lab_5
     000000FE  G$WCOL$0$0                         lab_5
     000000FE  _PCA0CPH4                          lab_5
     000000FE  _WCOL                              lab_5
     000000FF  G$SPIF$0$0                         lab_5
     000000FF  G$WDTCN$0$0                        lab_5
     000000FF  _SPIF                              lab_5
     000000FF  _WDTCN                             lab_5
     00008C8A  G$TMR0$0$0                         lab_5
     00008C8A  _TMR0                              lab_5
     00008D8B  G$TMR1$0$0                         lab_5
     00008D8B  _TMR1                              lab_5
     00009392  G$TMR3RL$0$0                       lab_5
     00009392  _TMR3RL                            lab_5
     00009594  G$TMR3$0$0                         lab_5
     00009594  _TMR3                              lab_5
     0000BFBE  G$ADC0$0$0                         lab_5
     0000BFBE  _ADC0                              lab_5
     0000C5C4  G$ADC0GT$0$0                       lab_5
     0000C5C4  _ADC0GT                            lab_5
     0000C7C6  G$ADC0LT$0$0                       lab_5
     0000C7C6  _ADC0LT                            lab_5
     0000CBCA  G$RCAP2$0$0                        lab_5
     0000CBCA  _RCAP2                             lab_5
     0000CDCC  G$TMR2$0$0                         lab_5
     0000CDCC  _TMR2                              lab_5
ASxxxx Linker V03.00 + NoICE + sdld,  page 14.
Hexadecimal  [32-Bits]

Area                                    Addr        Size        Decimal Bytes (Attributes)
--------------------------------        ----        ----        ------- ----- ------------
.  .ABS.                            00000000    00000000 =           0. bytes (ABS,CON)

      Value  Global                              Global Defined In Module
      -----  --------------------------------   ------------------------
     0000D3D2  G$DAC0$0$0                         lab_5
     0000D3D2  _DAC0                              lab_5
     0000D6D5  G$DAC1$0$0                         lab_5
     0000D6D5  _DAC1                              lab_5
     0000E5E4  G$RCAP4$0$0                        lab_5
     0000E5E4  _RCAP4                             lab_5
     0000F5F4  G$TMR4$0$0                         lab_5
     0000F5F4  _TMR4                              lab_5
     0000F9E9  G$PCA0$0$0                         lab_5
     0000F9E9  _PCA0                              lab_5
     0000FAEA  G$PCA0CP0$0$0                      lab_5
     0000FAEA  _PCA0CP0                           lab_5
     0000FBEB  G$PCA0CP1$0$0                      lab_5
     0000FBEB  _PCA0CP1                           lab_5
     0000FCEC  G$PCA0CP2$0$0                      lab_5
     0000FCEC  _PCA0CP2                           lab_5
     0000FDED  G$PCA0CP3$0$0                      lab_5
     0000FDED  _PCA0CP3                           lab_5
     0000FEEE  G$PCA0CP4$0$0                      lab_5
     0000FEEE  _PCA0CP4                           lab_5

ASxxxx Linker V03.00 + NoICE + sdld,  page 15.
Hexadecimal  [32-Bits]

Area                                    Addr        Size        Decimal Bytes (Attributes)
--------------------------------        ----        ----        ------- ----- ------------
BSEG_BYTES                          00000020    00000002 =           2. bytes (REL,CON)

      Value  Global                              Global Defined In Module
      -----  --------------------------------   ------------------------
ASxxxx Linker V03.00 + NoICE + sdld,  page 16.
Hexadecimal  [32-Bits]

Area                                    Addr        Size        Decimal Bytes (Attributes)
--------------------------------        ----        ----        ------- ----- ------------
REG_BANK_0                          00000000    00000008 =           8. bytes (REL,OVR)

      Value  Global                              Global Defined In Module
      -----  --------------------------------   ------------------------
ASxxxx Linker V03.00 + NoICE + sdld,  page 17.
Hexadecimal  [32-Bits]

Area                                    Addr        Size        Decimal Bytes (Attributes)
--------------------------------        ----        ----        ------- ----- ------------
DSEG                                00000000    0000007D =         125. bytes (REL,CON)

      Value  Global                              Global Defined In Module
      -----  --------------------------------   ------------------------
     00000008  _vsprintf_PARM_2                   sprintf
     0000000B  _vsprintf_PARM_3                   sprintf
     0000000F  _bp                                _bp
     00000010  _vprintf_PARM_2                    vprintf
     00000022  G$Data2$0$0                        lab_5
     00000022  _Data2                             lab_5
     00000025  Llab_5.aligned_alloc$size$1$26     lab_5
     00000025  _aligned_alloc_PARM_2              lab_5
     00000027  Llab_5.lcd_clear$NumBytes$1$85     lab_5
     00000028  Llab_5.lcd_clear$Cmd$1$85          lab_5
     0000002A  Llab_5.read_keypad$Data$1$86       lab_5
     0000002C  Llab_5.i2c_write_data$start_reg$   lab_5
     0000002C  _i2c_write_data_PARM_2             lab_5
     0000002D  Llab_5.i2c_write_data$buffer$1$1   lab_5
     0000002D  _i2c_write_data_PARM_3             lab_5
     00000030  Llab_5.i2c_write_data$num_bytes$   lab_5
     00000030  _i2c_write_data_PARM_4             lab_5
     00000031  Llab_5.i2c_read_data$start_reg$1   lab_5
     00000031  _i2c_read_data_PARM_2              lab_5
     00000032  Llab_5.i2c_read_data$buffer$1$10   lab_5
     00000032  _i2c_read_data_PARM_3              lab_5
     00000035  Llab_5.i2c_read_data$num_bytes$1   lab_5
     00000035  _i2c_read_data_PARM_4              lab_5
     00000036  G$MOTOR_STOP$0$0                   lab_5
     00000036  _MOTOR_STOP                        lab_5
     00000038  G$MOTOR_MAX$0$0                    lab_5
     00000038  _MOTOR_MAX                         lab_5
     0000003A  G$MOTOR_MIN$0$0                    lab_5
     0000003A  _MOTOR_MIN                         lab_5
     0000003C  G$MOTOR_PW$0$0                     lab_5
     0000003C  _MOTOR_PW                          lab_5
     0000003E  G$SERVO_CENTER$0$0                 lab_5
     0000003E  _SERVO_CENTER                      lab_5
     00000040  G$SERVO_RIGHT$0$0                  lab_5
     00000040  _SERVO_RIGHT                       lab_5
     00000042  G$SERVO_LEFT$0$0                   lab_5
     00000042  _SERVO_LEFT                        lab_5
     00000044  G$SERVO_PW$0$0                     lab_5
     00000044  _SERVO_PW                          lab_5
     00000046  G$new_accel$0$0                    lab_5
     00000046  _new_accel                         lab_5
     00000047  G$new_lcd$0$0                      lab_5
     00000047  _new_lcd                           lab_5
     00000048  G$range$0$0                        lab_5
     00000048  _range                             lab_5
     0000004A  G$a_count$0$0                      lab_5
     0000004A  _a_count                           lab_5
     0000004B  G$lcd_count$0$0                    lab_5
     0000004B  _lcd_count                         lab_5
     0000004C  G$Data$0$0                         lab_5
ASxxxx Linker V03.00 + NoICE + sdld,  page 18.
Hexadecimal  [32-Bits]

Area                                    Addr        Size        Decimal Bytes (Attributes)
--------------------------------        ----        ----        ------- ----- ------------
DSEG                                00000000    0000007D =         125. bytes (REL,CON)

      Value  Global                              Global Defined In Module
      -----  --------------------------------   ------------------------
     0000004C  _Data                              lab_5
     00000050  G$gx$0$0                           lab_5
     00000050  _gx                                lab_5
     00000052  G$gy$0$0                           lab_5
     00000052  _gy                                lab_5
     00000054  G$x0$0$0                           lab_5
     00000054  _x0                                lab_5
     00000056  G$y0$0$0                           lab_5
     00000056  _y0                                lab_5
     00000058  G$ks$0$0                           lab_5
     00000058  _ks                                lab_5
     00000059  G$kdx$0$0                          lab_5
     00000059  _kdx                               lab_5
     0000005A  G$kdy$0$0                          lab_5
     0000005A  _kdy                               lab_5
     0000005B  G$levelflag$0$0                    lab_5
     0000005B  _levelflag                         lab_5
     0000005C  G$nCounts$0$0                      lab_5
     0000005C  _nCounts                           lab_5
     0000005E  G$direction$0$0                    lab_5
     0000005E  _direction                         lab_5
     0000005F  G$Constant$0$0                     lab_5
     0000005F  _Constant                          lab_5
     00000061  G$avg_gx$0$0                       lab_5
     00000061  _avg_gx                            lab_5
     00000063  G$avg_gy$0$0                       lab_5
     00000063  _avg_gy                            lab_5
     00000065  Llab_5.read_AD_input$cast$1$166    lab_5
     00000065  _read_AD_input_PARM_2              lab_5
     00000072  __print_format_PARM_2              printf_large
     00000075  __print_format_PARM_3              printf_large
     00000078  __print_format_PARM_4              printf_large

ASxxxx Linker V03.00 + NoICE + sdld,  page 19.
Hexadecimal  [32-Bits]

Area                                    Addr        Size        Decimal Bytes (Attributes)
--------------------------------        ----        ----        ------- ----- ------------
OSEG                                00000011    00000006 =           6. bytes (REL,OVR)

      Value  Global                              Global Defined In Module
      -----  --------------------------------   ------------------------
     00000011  __divsint_PARM_2                   _divuint
     00000011  __divuint_PARM_2                   _divuint
     00000011  __gptrput_PARM_2                   _gptrput
     00000011  __mulint_PARM_2                    _mulint

ASxxxx Linker V03.00 + NoICE + sdld,  page 20.
Hexadecimal  [32-Bits]

Area                                    Addr        Size        Decimal Bytes (Attributes)
--------------------------------        ----        ----        ------- ----- ------------
ISEG                                00000017    00000006 =           6. bytes (REL,CON)

      Value  Global                              Global Defined In Module
      -----  --------------------------------   ------------------------
ASxxxx Linker V03.00 + NoICE + sdld,  page 21.
Hexadecimal  [32-Bits]

Area                                    Addr        Size        Decimal Bytes (Attributes)
--------------------------------        ----        ----        ------- ----- ------------
SSEG                                00000080    00000080 =         128. bytes (REL,OVR)

      Value  Global                              Global Defined In Module
      -----  --------------------------------   ------------------------
     00000080  __start__stack                     lab_5

ASxxxx Linker V03.00 + NoICE + sdld,  page 22.
Hexadecimal  [32-Bits]

Area                                    Addr        Size        Decimal Bytes (Attributes)
--------------------------------        ----        ----        ------- ----- ------------
XSEG                                00000001    00000050 =          80. bytes (REL,CON,XDATA)

      Value  Global                              Global Defined In Module
      -----  --------------------------------   ------------------------
D:   00000001  Llab_5.lcd_print$text$1$81         lab_5

ASxxxx Linker V03.00 + NoICE + sdld,  page 23.
Hexadecimal  [32-Bits]

Area                                    Addr        Size        Decimal Bytes (Attributes)
--------------------------------        ----        ----        ------- ----- ------------
HOME                                00000000    00000051 =          81. bytes (REL,CON,CODE)

      Value  Global                              Global Defined In Module
      -----  --------------------------------   ------------------------
C:   00000000  A$lab-5$1149                       lab_5
C:   00000003  A$lab-5$1150                       lab_5
C:   0000000B  A$lab-5$1152                       lab_5
C:   00000013  A$lab-5$1154                       lab_5
C:   0000001B  A$lab-5$1156                       lab_5
C:   00000023  A$lab-5$1158                       lab_5
C:   0000002B  A$lab-5$1160                       lab_5
C:   00000033  A$lab-5$1162                       lab_5
C:   0000003B  A$lab-5$1164                       lab_5
C:   00000043  A$lab-5$1166                       lab_5
C:   0000004B  A$lab-5$1168                       lab_5
C:   0000004E  A$lab-5$1259                       lab_5
C:   0000004E  __sdcc_program_startup             lab_5

ASxxxx Linker V03.00 + NoICE + sdld,  page 24.
Hexadecimal  [32-Bits]

Area                                    Addr        Size        Decimal Bytes (Attributes)
--------------------------------        ----        ----        ------- ----- ------------
GSINIT0                             00000051    00000003 =           3. bytes (REL,CON,CODE)

      Value  Global                              Global Defined In Module
      -----  --------------------------------   ------------------------
C:   00000051  __sdcc_gsinit_startup              

ASxxxx Linker V03.00 + NoICE + sdld,  page 25.
Hexadecimal  [32-Bits]

Area                                    Addr        Size        Decimal Bytes (Attributes)
--------------------------------        ----        ----        ------- ----- ------------
GSINIT2                             00000054    0000000A =          10. bytes (REL,CON,CODE)

      Value  Global                              Global Defined In Module
      -----  --------------------------------   ------------------------
ASxxxx Linker V03.00 + NoICE + sdld,  page 26.
Hexadecimal  [32-Bits]

Area                                    Addr        Size        Decimal Bytes (Attributes)
--------------------------------        ----        ----        ------- ----- ------------
GSINIT3                             0000005E    00000022 =          34. bytes (REL,CON,CODE)

      Value  Global                              Global Defined In Module
      -----  --------------------------------   ------------------------
C:   0000005E  __mcs51_genXINIT                   

ASxxxx Linker V03.00 + NoICE + sdld,  page 27.
Hexadecimal  [32-Bits]

Area                                    Addr        Size        Decimal Bytes (Attributes)
--------------------------------        ----        ----        ------- ----- ------------
GSINIT4                             00000080    0000002A =          42. bytes (REL,CON,CODE)

      Value  Global                              Global Defined In Module
      -----  --------------------------------   ------------------------
C:   00000080  __mcs51_genRAMCLEAR                
C:   00000086  __mcs51_genXRAMCLEAR               

ASxxxx Linker V03.00 + NoICE + sdld,  page 28.
Hexadecimal  [32-Bits]

Area                                    Addr        Size        Decimal Bytes (Attributes)
--------------------------------        ----        ----        ------- ----- ------------
GSINIT                              000000AA    0000004D =          77. bytes (REL,CON,CODE)

      Value  Global                              Global Defined In Module
      -----  --------------------------------   ------------------------
C:   000000AA  A$lab-5$1184                       lab_5
C:   000000AA  C$lab_5.c$29$1$197                 lab_5
C:   000000AD  A$lab-5$1185                       lab_5
C:   000000B0  A$lab-5$1188                       lab_5
C:   000000B0  C$lab_5.c$30$1$197                 lab_5
C:   000000B3  A$lab-5$1189                       lab_5
C:   000000B6  A$lab-5$1192                       lab_5
C:   000000B6  C$lab_5.c$31$1$197                 lab_5
C:   000000B9  A$lab-5$1193                       lab_5
C:   000000BC  A$lab-5$1196                       lab_5
C:   000000BC  C$lab_5.c$32$1$197                 lab_5
C:   000000BD  A$lab-5$1197                       lab_5
C:   000000BF  A$lab-5$1198                       lab_5
C:   000000C1  A$lab-5$1201                       lab_5
C:   000000C1  C$lab_5.c$33$1$197                 lab_5
C:   000000C4  A$lab-5$1202                       lab_5
C:   000000C7  A$lab-5$1205                       lab_5
C:   000000C7  C$lab_5.c$34$1$197                 lab_5
C:   000000CA  A$lab-5$1206                       lab_5
C:   000000CD  A$lab-5$1209                       lab_5
C:   000000CD  C$lab_5.c$35$1$197                 lab_5
C:   000000D0  A$lab-5$1210                       lab_5
C:   000000D3  A$lab-5$1213                       lab_5
C:   000000D3  C$lab_5.c$36$1$197                 lab_5
C:   000000D5  A$lab-5$1214                       lab_5
C:   000000D7  A$lab-5$1218                       lab_5
C:   000000D7  C$lab_5.c$38$1$197                 lab_5
C:   000000D9  A$lab-5$1222                       lab_5
C:   000000D9  C$lab_5.c$39$1$197                 lab_5
C:   000000DB  A$lab-5$1225                       lab_5
C:   000000DB  C$lab_5.c$44$1$197                 lab_5
C:   000000DD  A$lab-5$1226                       lab_5
C:   000000DF  A$lab-5$1229                       lab_5
C:   000000DF  C$lab_5.c$45$1$197                 lab_5
C:   000000E1  A$lab-5$1230                       lab_5
C:   000000E3  A$lab-5$1233                       lab_5
C:   000000E3  C$lab_5.c$46$1$197                 lab_5
C:   000000E5  A$lab-5$1234                       lab_5
C:   000000E7  A$lab-5$1237                       lab_5
C:   000000E7  C$lab_5.c$47$1$197                 lab_5
C:   000000E9  A$lab-5$1238                       lab_5
C:   000000EB  A$lab-5$1241                       lab_5
C:   000000EB  C$lab_5.c$51$1$197                 lab_5
C:   000000EE  A$lab-5$1244                       lab_5
C:   000000EE  C$lab_5.c$52$1$197                 lab_5
C:   000000F0  A$lab-5$1245                       lab_5
C:   000000F2  A$lab-5$1248                       lab_5
C:   000000F2  C$lab_5.c$54$1$197                 lab_5
C:   000000F5  A$lab-5$1250                       lab_5

ASxxxx Linker V03.00 + NoICE + sdld,  page 29.
Hexadecimal  [32-Bits]

Area                                    Addr        Size        Decimal Bytes (Attributes)
--------------------------------        ----        ----        ------- ----- ------------
GSFINAL                             000000F7    00000003 =           3. bytes (REL,CON,CODE)

      Value  Global                              Global Defined In Module
      -----  --------------------------------   ------------------------
C:   000000F7  A$lab-5$1252                       lab_5

ASxxxx Linker V03.00 + NoICE + sdld,  page 30.
Hexadecimal  [32-Bits]

Area                                    Addr        Size        Decimal Bytes (Attributes)
--------------------------------        ----        ----        ------- ----- ------------
CSEG                                000000FA    00001878 =        6264. bytes (REL,CON,CODE)

      Value  Global                              Global Defined In Module
      -----  --------------------------------   ------------------------
C:   000000FA  A$lab-5$1287                       lab_5
C:   000000FA  C$c8051_SDCC.h$62$0$0              lab_5
C:   000000FA  C$c8051_SDCC.h$66$1$2              lab_5
C:   000000FA  G$SYSCLK_Init$0$0                  lab_5
C:   000000FA  _SYSCLK_Init                       lab_5
C:   000000FD  A$lab-5$1290                       lab_5
C:   000000FD  C$c8051_SDCC.h$69$1$2              lab_5
C:   000000FF  A$lab-5$1291                       lab_5
C:   00000101  A$lab-5$1293                       lab_5
C:   00000102  A$lab-5$1294                       lab_5
C:   00000104  A$lab-5$1295                       lab_5
C:   00000105  A$lab-5$1296                       lab_5
C:   00000106  A$lab-5$1297                       lab_5
C:   00000108  A$lab-5$1298                       lab_5
C:   00000109  A$lab-5$1299                       lab_5
C:   0000010B  A$lab-5$1300                       lab_5
C:   0000010D  A$lab-5$1301                       lab_5
C:   0000010E  A$lab-5$1302                       lab_5
C:   0000010F  A$lab-5$1303                       lab_5
C:   00000111  A$lab-5$1307                       lab_5
C:   00000111  C$c8051_SDCC.h$71$1$2              lab_5
C:   00000113  A$lab-5$1308                       lab_5
C:   00000116  A$lab-5$1311                       lab_5
C:   00000116  C$c8051_SDCC.h$73$1$2              lab_5
C:   00000119  A$lab-5$1314                       lab_5
C:   00000119  C$c8051_SDCC.h$76$1$2              lab_5
C:   00000119  XG$SYSCLK_Init$0$0                 lab_5
C:   0000011A  A$lab-5$1327                       lab_5
C:   0000011A  C$c8051_SDCC.h$84$1$2              lab_5
C:   0000011A  C$c8051_SDCC.h$86$1$4              lab_5
C:   0000011A  G$UART0_Init$0$0                   lab_5
C:   0000011A  _UART0_Init                        lab_5
C:   0000011D  A$lab-5$1330                       lab_5
C:   0000011D  C$c8051_SDCC.h$87$1$4              lab_5
C:   00000120  A$lab-5$1333                       lab_5
C:   00000120  C$c8051_SDCC.h$88$1$4              lab_5
C:   00000123  A$lab-5$1336                       lab_5
C:   00000123  C$c8051_SDCC.h$89$1$4              lab_5
C:   00000125  A$lab-5$1339                       lab_5
C:   00000125  C$c8051_SDCC.h$90$1$4              lab_5
C:   00000128  A$lab-5$1342                       lab_5
C:   00000128  C$c8051_SDCC.h$91$1$4              lab_5
C:   0000012B  A$lab-5$1345                       lab_5
C:   0000012B  C$c8051_SDCC.h$93$1$4              lab_5
C:   0000012D  A$lab-5$1348                       lab_5
C:   0000012D  C$c8051_SDCC.h$94$1$4              lab_5
C:   00000130  A$lab-5$1351                       lab_5
C:   00000130  C$c8051_SDCC.h$95$1$4              lab_5
C:   00000130  XG$UART0_Init$0$0                  lab_5
C:   00000131  A$lab-5$1364                       lab_5
ASxxxx Linker V03.00 + NoICE + sdld,  page 31.
Hexadecimal  [32-Bits]

Area                                    Addr        Size        Decimal Bytes (Attributes)
--------------------------------        ----        ----        ------- ----- ------------
CSEG                                000000FA    00001878 =        6264. bytes (REL,CON,CODE)

      Value  Global                              Global Defined In Module
      -----  --------------------------------   ------------------------
C:   00000131  C$c8051_SDCC.h$103$1$4             lab_5
C:   00000131  C$c8051_SDCC.h$105$1$6             lab_5
C:   00000131  G$Sys_Init$0$0                     lab_5
C:   00000131  _Sys_Init                          lab_5
C:   00000134  A$lab-5$1367                       lab_5
C:   00000134  C$c8051_SDCC.h$106$1$6             lab_5
C:   00000137  A$lab-5$1370                       lab_5
C:   00000137  C$c8051_SDCC.h$108$1$6             lab_5
C:   0000013A  A$lab-5$1373                       lab_5
C:   0000013A  C$c8051_SDCC.h$109$1$6             lab_5
C:   0000013D  A$lab-5$1376                       lab_5
C:   0000013D  C$c8051_SDCC.h$111$1$6             lab_5
C:   00000140  A$lab-5$1379                       lab_5
C:   00000140  C$c8051_SDCC.h$112$1$6             lab_5
C:   00000143  A$lab-5$1382                       lab_5
C:   00000143  C$c8051_SDCC.h$113$1$6             lab_5
C:   00000143  XG$Sys_Init$0$0                    lab_5
C:   00000144  A$lab-5$1395                       lab_5
C:   00000144  C$c8051_SDCC.h$129$1$6             lab_5
C:   00000144  G$putchar$0$0                      lab_5
C:   00000144  _putchar                           lab_5
C:   00000146  A$lab-5$1401                       lab_5
C:   00000146  C$c8051_SDCC.h$132$1$8             lab_5
C:   00000146  C$c8051_SDCC.h$133$1$8             lab_5
C:   00000149  A$lab-5$1402                       lab_5
C:   0000014B  A$lab-5$1406                       lab_5
C:   0000014B  C$c8051_SDCC.h$134$1$8             lab_5
C:   0000014D  A$lab-5$1409                       lab_5
C:   0000014D  C$c8051_SDCC.h$135$1$8             lab_5
C:   0000014D  XG$putchar$0$0                     lab_5
C:   0000014E  A$lab-5$1427                       lab_5
C:   0000014E  C$c8051_SDCC.h$154$1$8             lab_5
C:   0000014E  C$c8051_SDCC.h$157$1$10            lab_5
C:   0000014E  C$c8051_SDCC.h$158$1$10            lab_5
C:   0000014E  G$getchar$0$0                      lab_5
C:   00000151  A$lab-5$1428                       lab_5
C:   00000153  A$lab-5$1432                       lab_5
C:   00000153  C$c8051_SDCC.h$159$1$10            lab_5
C:   00000155  A$lab-5$1435                       lab_5
C:   00000155  C$c8051_SDCC.h$160$1$10            lab_5
C:   00000157  A$lab-5$1436                       lab_5
C:   00000159  A$lab-5$1437                       lab_5
C:   0000015C  A$lab-5$1438                       lab_5
C:   0000015E  A$lab-5$1441                       lab_5
C:   0000015E  C$c8051_SDCC.h$161$1$10            lab_5
C:   00000160  A$lab-5$1444                       lab_5
C:   00000160  C$c8051_SDCC.h$162$1$10            lab_5
C:   00000160  XG$getchar$0$0                     lab_5
C:   00000161  A$lab-5$1459                       lab_5
C:   00000161  C$c8051_SDCC.h$168$1$10            lab_5
C:   00000161  C$c8051_SDCC.h$171$1$12            lab_5
ASxxxx Linker V03.00 + NoICE + sdld,  page 32.
Hexadecimal  [32-Bits]

Area                                    Addr        Size        Decimal Bytes (Attributes)
--------------------------------        ----        ----        ------- ----- ------------
CSEG                                000000FA    00001878 =        6264. bytes (REL,CON,CODE)

      Value  Global                              Global Defined In Module
      -----  --------------------------------   ------------------------
C:   00000161  G$getchar_nw$0$0                   lab_5
C:   00000161  _getchar_nw                        lab_5
C:   00000164  A$lab-5$1460                       lab_5
C:   00000167  A$lab-5$1461                       lab_5
C:   00000169  A$lab-5$1465                       lab_5
C:   00000169  C$c8051_SDCC.h$174$2$13            lab_5
C:   0000016B  A$lab-5$1468                       lab_5
C:   0000016B  C$c8051_SDCC.h$175$2$13            lab_5
C:   0000016E  A$lab-5$1471                       lab_5
C:   0000016E  C$c8051_SDCC.h$176$2$13            lab_5
C:   00000171  A$lab-5$1474                       lab_5
C:   00000171  C$c8051_SDCC.h$177$2$13            lab_5
C:   00000174  A$lab-5$1478                       lab_5
C:   00000174  C$c8051_SDCC.h$179$1$12            lab_5
C:   00000174  XG$getchar_nw$0$0                  lab_5
C:   00000175  A$lab-5$1495                       lab_5
C:   00000175  C$i2c.h$84$1$12                    lab_5
C:   00000175  G$lcd_print$0$0                    lab_5
C:   00000175  _lcd_print                         lab_5
C:   00000177  A$lab-5$1496                       lab_5
C:   0000017A  A$lab-5$1499                       lab_5
C:   0000017A  C$i2c.h$90$1$81                    lab_5
C:   0000017C  A$lab-5$1500                       lab_5
C:   0000017E  A$lab-5$1501                       lab_5
C:   0000017F  A$lab-5$1502                       lab_5
C:   00000181  A$lab-5$1503                       lab_5
C:   00000182  A$lab-5$1504                       lab_5
C:   00000184  A$lab-5$1505                       lab_5
C:   00000185  A$lab-5$1506                       lab_5
C:   00000187  A$lab-5$1507                       lab_5
C:   0000018A  A$lab-5$1508                       lab_5
C:   0000018C  A$lab-5$1509                       lab_5
C:   0000018F  A$lab-5$1510                       lab_5
C:   00000191  A$lab-5$1511                       lab_5
C:   00000193  A$lab-5$1512                       lab_5
C:   00000195  A$lab-5$1516                       lab_5
C:   00000195  C$i2c.h$92$2$82                    lab_5
C:   00000197  A$lab-5$1517                       lab_5
C:   00000199  A$lab-5$1518                       lab_5
C:   0000019A  A$lab-5$1519                       lab_5
C:   0000019C  A$lab-5$1522                       lab_5
C:   0000019C  C$i2c.h$93$1$81                    lab_5
C:   0000019E  A$lab-5$1523                       lab_5
C:   000001A0  A$lab-5$1524                       lab_5
C:   000001A1  A$lab-5$1525                       lab_5
C:   000001A3  A$lab-5$1526                       lab_5
C:   000001A4  A$lab-5$1527                       lab_5
C:   000001A6  A$lab-5$1528                       lab_5
C:   000001A7  A$lab-5$1529                       lab_5
C:   000001A9  A$lab-5$1530                       lab_5
C:   000001AC  A$lab-5$1531                       lab_5
ASxxxx Linker V03.00 + NoICE + sdld,  page 33.
Hexadecimal  [32-Bits]

Area                                    Addr        Size        Decimal Bytes (Attributes)
--------------------------------        ----        ----        ------- ----- ------------
CSEG                                000000FA    00001878 =        6264. bytes (REL,CON,CODE)

      Value  Global                              Global Defined In Module
      -----  --------------------------------   ------------------------
C:   000001AF  A$lab-5$1532                       lab_5
C:   000001B2  A$lab-5$1535                       lab_5
C:   000001B2  C$i2c.h$96$1$81                    lab_5
C:   000001B5  A$lab-5$1536                       lab_5
C:   000001B8  A$lab-5$1537                       lab_5
C:   000001BB  A$lab-5$1538                       lab_5
C:   000001BD  A$lab-5$1541                       lab_5
C:   000001BF  A$lab-5$1543                       lab_5
C:   000001C0  A$lab-5$1544                       lab_5
C:   000001C1  A$lab-5$1545                       lab_5
C:   000001C2  A$lab-5$1546                       lab_5
C:   000001C4  A$lab-5$1549                       lab_5
C:   000001C4  C$i2c.h$99$2$84                    lab_5
C:   000001C5  A$lab-5$1550                       lab_5
C:   000001C7  A$lab-5$1551                       lab_5
C:   000001C9  A$lab-5$1552                       lab_5
C:   000001CA  A$lab-5$1553                       lab_5
C:   000001CC  A$lab-5$1554                       lab_5
C:   000001CE  A$lab-5$1555                       lab_5
C:   000001CF  A$lab-5$1556                       lab_5
C:   000001D0  A$lab-5$1557                       lab_5
C:   000001D3  A$lab-5$1558                       lab_5
C:   000001D4  A$lab-5$1559                       lab_5
C:   000001D6  A$lab-5$1560                       lab_5
C:   000001D8  A$lab-5$1561                       lab_5
C:   000001D9  A$lab-5$1562                       lab_5
C:   000001DB  A$lab-5$1563                       lab_5
C:   000001DD  A$lab-5$1564                       lab_5
C:   000001DF  A$lab-5$1565                       lab_5
C:   000001E0  A$lab-5$1569                       lab_5
C:   000001E0  C$i2c.h$97$1$81                    lab_5
C:   000001E1  A$lab-5$1570                       lab_5
C:   000001E3  A$lab-5$1574                       lab_5
C:   000001E3  C$i2c.h$102$1$81                   lab_5
C:   000001E6  A$lab-5$1575                       lab_5
C:   000001E9  A$lab-5$1576                       lab_5
C:   000001EC  A$lab-5$1577                       lab_5
C:   000001EF  A$lab-5$1578                       lab_5
C:   000001F1  A$lab-5$1579                       lab_5
C:   000001F4  A$lab-5$1580                       lab_5
C:   000001F7  A$lab-5$1582                       lab_5
C:   000001F9  A$lab-5$1585                       lab_5
C:   000001F9  C$i2c.h$103$1$81                   lab_5
C:   000001F9  XG$lcd_print$0$0                   lab_5
C:   000001FA  A$lab-5$1601                       lab_5
C:   000001FA  C$i2c.h$106$1$81                   lab_5
C:   000001FA  C$i2c.h$108$1$81                   lab_5
C:   000001FA  G$lcd_clear$0$0                    lab_5
C:   000001FA  _lcd_clear                         lab_5
C:   000001FD  A$lab-5$1605                       lab_5
C:   000001FD  C$i2c.h$110$1$85                   lab_5
ASxxxx Linker V03.00 + NoICE + sdld,  page 34.
Hexadecimal  [32-Bits]

Area                                    Addr        Size        Decimal Bytes (Attributes)
--------------------------------        ----        ----        ------- ----- ------------
CSEG                                000000FA    00001878 =        6264. bytes (REL,CON,CODE)

      Value  Global                              Global Defined In Module
      -----  --------------------------------   ------------------------
C:   000001FF  A$lab-5$1606                       lab_5
C:   00000201  A$lab-5$1607                       lab_5
C:   00000203  A$lab-5$1608                       lab_5
C:   00000206  A$lab-5$1609                       lab_5
C:   00000209  A$lab-5$1610                       lab_5
C:   0000020C  A$lab-5$1611                       lab_5
C:   0000020F  A$lab-5$1612                       lab_5
C:   00000212  A$lab-5$1613                       lab_5
C:   00000215  A$lab-5$1614                       lab_5
C:   00000218  A$lab-5$1615                       lab_5
C:   0000021A  A$lab-5$1619                       lab_5
C:   0000021A  C$i2c.h$112$1$85                   lab_5
C:   0000021D  A$lab-5$1622                       lab_5
C:   0000021D  C$i2c.h$113$1$85                   lab_5
C:   00000220  A$lab-5$1623                       lab_5
C:   00000223  A$lab-5$1624                       lab_5
C:   00000226  A$lab-5$1625                       lab_5
C:   00000229  A$lab-5$1626                       lab_5
C:   0000022C  A$lab-5$1627                       lab_5
C:   0000022F  A$lab-5$1628                       lab_5
C:   00000232  A$lab-5$1631                       lab_5
C:   00000232  C$i2c.h$114$1$85                   lab_5
C:   00000232  XG$lcd_clear$0$0                   lab_5
C:   00000233  A$lab-5$1647                       lab_5
C:   00000233  C$i2c.h$117$1$85                   lab_5
C:   00000233  C$i2c.h$121$1$86                   lab_5
C:   00000233  G$read_keypad$0$0                  lab_5
C:   00000233  _read_keypad                       lab_5
C:   00000236  A$lab-5$1648                       lab_5
C:   00000239  A$lab-5$1649                       lab_5
C:   0000023C  A$lab-5$1650                       lab_5
C:   0000023F  A$lab-5$1651                       lab_5
C:   00000242  A$lab-5$1652                       lab_5
C:   00000245  A$lab-5$1653                       lab_5
C:   00000248  A$lab-5$1656                       lab_5
C:   00000248  C$i2c.h$122$1$86                   lab_5
C:   0000024A  A$lab-5$1657                       lab_5
C:   0000024D  A$lab-5$1658                       lab_5
C:   00000250  A$lab-5$1659                       lab_5
C:   00000252  A$lab-5$1663                       lab_5
C:   00000254  A$lab-5$1664                       lab_5
C:   00000256  A$lab-5$1668                       lab_5
C:   00000256  C$i2c.h$126$2$87                   lab_5
C:   00000258  A$lab-5$1669                       lab_5
C:   0000025A  A$lab-5$1670                       lab_5
C:   0000025C  A$lab-5$1671                       lab_5
C:   0000025E  A$lab-5$1672                       lab_5
C:   00000260  A$lab-5$1674                       lab_5
C:   00000261  A$lab-5$1675                       lab_5
C:   00000262  A$lab-5$1676                       lab_5
C:   00000263  A$lab-5$1677                       lab_5
ASxxxx Linker V03.00 + NoICE + sdld,  page 35.
Hexadecimal  [32-Bits]

Area                                    Addr        Size        Decimal Bytes (Attributes)
--------------------------------        ----        ----        ------- ----- ------------
CSEG                                000000FA    00001878 =        6264. bytes (REL,CON,CODE)

      Value  Global                              Global Defined In Module
      -----  --------------------------------   ------------------------
C:   00000264  A$lab-5$1678                       lab_5
C:   00000265  A$lab-5$1679                       lab_5
C:   00000266  A$lab-5$1681                       lab_5
C:   00000269  A$lab-5$1682                       lab_5
C:   0000026B  A$lab-5$1683                       lab_5
C:   0000026D  A$lab-5$1684                       lab_5
C:   0000026E  A$lab-5$1685                       lab_5
C:   00000270  A$lab-5$1686                       lab_5
C:   00000271  A$lab-5$1687                       lab_5
C:   00000273  A$lab-5$1688                       lab_5
C:   00000274  A$lab-5$1689                       lab_5
C:   00000275  A$lab-5$1690                       lab_5
C:   00000277  A$lab-5$1693                       lab_5
C:   00000277  C$i2c.h$127$2$87                   lab_5
C:   00000279  A$lab-5$1694                       lab_5
C:   0000027A  A$lab-5$1695                       lab_5
C:   0000027C  A$lab-5$1696                       lab_5
C:   0000027E  A$lab-5$1700                       lab_5
C:   0000027E  C$i2c.h$124$1$86                   lab_5
C:   0000027F  A$lab-5$1701                       lab_5
C:   00000281  A$lab-5$1702                       lab_5
C:   00000284  A$lab-5$1704                       lab_5
C:   00000286  A$lab-5$1707                       lab_5
C:   00000286  C$i2c.h$130$1$86                   lab_5
C:   00000288  A$lab-5$1708                       lab_5
C:   0000028B  A$lab-5$1709                       lab_5
C:   0000028E  A$lab-5$1710                       lab_5
C:   00000290  A$lab-5$1714                       lab_5
C:   00000290  C$i2c.h$132$1$86                   lab_5
C:   00000292  A$lab-5$1715                       lab_5
C:   00000295  A$lab-5$1716                       lab_5
C:   00000298  A$lab-5$1717                       lab_5
C:   0000029A  A$lab-5$1721                       lab_5
C:   0000029A  C$i2c.h$134$1$86                   lab_5
C:   0000029C  A$lab-5$1722                       lab_5
C:   0000029F  A$lab-5$1723                       lab_5
C:   000002A2  A$lab-5$1724                       lab_5
C:   000002A4  A$lab-5$1728                       lab_5
C:   000002A4  C$i2c.h$136$1$86                   lab_5
C:   000002A6  A$lab-5$1729                       lab_5
C:   000002A9  A$lab-5$1730                       lab_5
C:   000002AC  A$lab-5$1731                       lab_5
C:   000002AE  A$lab-5$1735                       lab_5
C:   000002AE  C$i2c.h$138$1$86                   lab_5
C:   000002B1  A$lab-5$1739                       lab_5
C:   000002B1  C$i2c.h$139$1$86                   lab_5
C:   000002B1  XG$read_keypad$0$0                 lab_5
C:   000002B2  A$lab-5$1755                       lab_5
C:   000002B2  C$i2c.h$151$1$86                   lab_5
C:   000002B2  G$kpd_input$0$0                    lab_5
C:   000002B2  _kpd_input                         lab_5
ASxxxx Linker V03.00 + NoICE + sdld,  page 36.
Hexadecimal  [32-Bits]

Area                                    Addr        Size        Decimal Bytes (Attributes)
--------------------------------        ----        ----        ------- ----- ------------
CSEG                                000000FA    00001878 =        6264. bytes (REL,CON,CODE)

      Value  Global                              Global Defined In Module
      -----  --------------------------------   ------------------------
C:   000002B4  A$lab-5$1760                       lab_5
C:   000002B4  C$i2c.h$156$1$89                   lab_5
C:   000002B4  C$i2c.h$159$1$89                   lab_5
C:   000002B5  A$lab-5$1761                       lab_5
C:   000002B6  A$lab-5$1762                       lab_5
C:   000002B7  A$lab-5$1763                       lab_5
C:   000002B8  A$lab-5$1764                       lab_5
C:   000002BA  A$lab-5$1765                       lab_5
C:   000002BC  A$lab-5$1766                       lab_5
C:   000002BE  A$lab-5$1767                       lab_5
C:   000002C0  A$lab-5$1768                       lab_5
C:   000002C2  A$lab-5$1769                       lab_5
C:   000002C4  A$lab-5$1770                       lab_5
C:   000002C6  A$lab-5$1771                       lab_5
C:   000002C8  A$lab-5$1772                       lab_5
C:   000002CA  A$lab-5$1773                       lab_5
C:   000002CD  A$lab-5$1774                       lab_5
C:   000002CF  A$lab-5$1775                       lab_5
C:   000002D1  A$lab-5$1776                       lab_5
C:   000002D3  A$lab-5$1777                       lab_5
C:   000002D5  A$lab-5$1778                       lab_5
C:   000002D7  A$lab-5$1782                       lab_5
C:   000002D7  C$i2c.h$161$1$89                   lab_5
C:   000002D9  A$lab-5$1783                       lab_5
C:   000002DB  A$lab-5$1784                       lab_5
C:   000002DD  A$lab-5$1785                       lab_5
C:   000002DF  A$lab-5$1786                       lab_5
C:   000002E0  A$lab-5$1787                       lab_5
C:   000002E2  A$lab-5$1788                       lab_5
C:   000002E4  A$lab-5$1789                       lab_5
C:   000002E6  A$lab-5$1790                       lab_5
C:   000002E7  A$lab-5$1791                       lab_5
C:   000002E9  A$lab-5$1792                       lab_5
C:   000002EB  A$lab-5$1793                       lab_5
C:   000002ED  A$lab-5$1794                       lab_5
C:   000002EE  A$lab-5$1795                       lab_5
C:   000002F0  A$lab-5$1796                       lab_5
C:   000002F2  A$lab-5$1797                       lab_5
C:   000002F4  A$lab-5$1798                       lab_5
C:   000002F5  A$lab-5$1799                       lab_5
C:   000002F7  A$lab-5$1800                       lab_5
C:   000002F9  A$lab-5$1801                       lab_5
C:   000002FB  A$lab-5$1802                       lab_5
C:   000002FC  A$lab-5$1803                       lab_5
C:   000002FE  A$lab-5$1804                       lab_5
C:   00000300  A$lab-5$1805                       lab_5
C:   00000302  A$lab-5$1806                       lab_5
C:   00000304  A$lab-5$1807                       lab_5
C:   00000306  A$lab-5$1808                       lab_5
C:   00000308  A$lab-5$1809                       lab_5
C:   0000030A  A$lab-5$1810                       lab_5
ASxxxx Linker V03.00 + NoICE + sdld,  page 37.
Hexadecimal  [32-Bits]

Area                                    Addr        Size        Decimal Bytes (Attributes)
--------------------------------        ----        ----        ------- ----- ------------
CSEG                                000000FA    00001878 =        6264. bytes (REL,CON,CODE)

      Value  Global                              Global Defined In Module
      -----  --------------------------------   ------------------------
C:   0000030D  A$lab-5$1811                       lab_5
C:   0000030F  A$lab-5$1812                       lab_5
C:   00000311  A$lab-5$1813                       lab_5
C:   00000313  A$lab-5$1816                       lab_5
C:   00000313  C$i2c.h$163$1$89                   lab_5
C:   00000316  A$lab-5$1817                       lab_5
C:   00000319  A$lab-5$1818                       lab_5
C:   0000031A  A$lab-5$1819                       lab_5
C:   0000031D  A$lab-5$1820                       lab_5
C:   0000031F  A$lab-5$1821                       lab_5
C:   00000321  A$lab-5$1824                       lab_5
C:   00000323  A$lab-5$1828                       lab_5
C:   00000323  C$i2c.h$169$3$92                   lab_5
C:   00000325  A$lab-5$1829                       lab_5
C:   00000327  A$lab-5$1830                       lab_5
C:   00000329  A$lab-5$1831                       lab_5
C:   0000032C  A$lab-5$1832                       lab_5
C:   0000032E  A$lab-5$1833                       lab_5
C:   00000330  A$lab-5$1834                       lab_5
C:   00000332  A$lab-5$1835                       lab_5
C:   00000334  A$lab-5$1836                       lab_5
C:   00000336  A$lab-5$1837                       lab_5
C:   00000339  A$lab-5$1838                       lab_5
C:   0000033B  A$lab-5$1840                       lab_5
C:   0000033E  A$lab-5$1842                       lab_5
C:   00000341  A$lab-5$1843                       lab_5
C:   00000342  A$lab-5$1844                       lab_5
C:   00000344  A$lab-5$1845                       lab_5
C:   00000346  A$lab-5$1846                       lab_5
C:   00000348  A$lab-5$1847                       lab_5
C:   0000034A  A$lab-5$1848                       lab_5
C:   0000034D  A$lab-5$1849                       lab_5
C:   0000034F  A$lab-5$1850                       lab_5
C:   00000351  A$lab-5$1851                       lab_5
C:   00000353  A$lab-5$1852                       lab_5
C:   00000355  A$lab-5$1856                       lab_5
C:   00000355  C$i2c.h$170$2$90                   lab_5
C:   00000358  A$lab-5$1860                       lab_5
C:   00000358  C$i2c.h$172$3$91                   lab_5
C:   0000035A  A$lab-5$1861                       lab_5
C:   0000035C  A$lab-5$1862                       lab_5
C:   0000035F  A$lab-5$1863                       lab_5
C:   00000361  A$lab-5$1864                       lab_5
C:   00000363  A$lab-5$1865                       lab_5
C:   00000365  A$lab-5$1866                       lab_5
C:   00000368  A$lab-5$1867                       lab_5
C:   0000036B  A$lab-5$1868                       lab_5
C:   0000036C  A$lab-5$1869                       lab_5
C:   0000036E  A$lab-5$1870                       lab_5
C:   00000370  A$lab-5$1871                       lab_5
C:   00000372  A$lab-5$1872                       lab_5
ASxxxx Linker V03.00 + NoICE + sdld,  page 38.
Hexadecimal  [32-Bits]

Area                                    Addr        Size        Decimal Bytes (Attributes)
--------------------------------        ----        ----        ------- ----- ------------
CSEG                                000000FA    00001878 =        6264. bytes (REL,CON,CODE)

      Value  Global                              Global Defined In Module
      -----  --------------------------------   ------------------------
C:   00000375  A$lab-5$1873                       lab_5
C:   00000377  A$lab-5$1874                       lab_5
C:   00000379  A$lab-5$1875                       lab_5
C:   0000037B  A$lab-5$1879                       lab_5
C:   0000037B  C$i2c.h$173$3$91                   lab_5
C:   0000037D  A$lab-5$1880                       lab_5
C:   0000037F  A$lab-5$1881                       lab_5
C:   00000382  A$lab-5$1885                       lab_5
C:   00000382  C$i2c.h$177$3$92                   lab_5
C:   00000384  A$lab-5$1886                       lab_5
C:   00000386  A$lab-5$1887                       lab_5
C:   00000388  A$lab-5$1888                       lab_5
C:   0000038A  A$lab-5$1889                       lab_5
C:   0000038C  A$lab-5$1890                       lab_5
C:   0000038E  A$lab-5$1891                       lab_5
C:   00000390  A$lab-5$1892                       lab_5
C:   00000392  A$lab-5$1893                       lab_5
C:   00000394  A$lab-5$1894                       lab_5
C:   00000396  A$lab-5$1895                       lab_5
C:   00000398  A$lab-5$1896                       lab_5
C:   0000039A  A$lab-5$1897                       lab_5
C:   0000039C  A$lab-5$1898                       lab_5
C:   0000039E  A$lab-5$1899                       lab_5
C:   000003A0  A$lab-5$1900                       lab_5
C:   000003A2  A$lab-5$1901                       lab_5
C:   000003A5  A$lab-5$1902                       lab_5
C:   000003A7  A$lab-5$1903                       lab_5
C:   000003A9  A$lab-5$1904                       lab_5
C:   000003AB  A$lab-5$1905                       lab_5
C:   000003AD  A$lab-5$1906                       lab_5
C:   000003AF  A$lab-5$1907                       lab_5
C:   000003B1  A$lab-5$1908                       lab_5
C:   000003B3  A$lab-5$1909                       lab_5
C:   000003B5  A$lab-5$1912                       lab_5
C:   000003B5  C$i2c.h$178$1$89                   lab_5
C:   000003B7  A$lab-5$1913                       lab_5
C:   000003B9  A$lab-5$1914                       lab_5
C:   000003BC  A$lab-5$1915                       lab_5
C:   000003BE  A$lab-5$1916                       lab_5
C:   000003C0  A$lab-5$1917                       lab_5
C:   000003C2  A$lab-5$1918                       lab_5
C:   000003C5  A$lab-5$1919                       lab_5
C:   000003C7  A$lab-5$1920                       lab_5
C:   000003C9  A$lab-5$1921                       lab_5
C:   000003CB  A$lab-5$1922                       lab_5
C:   000003CD  A$lab-5$1923                       lab_5
C:   000003CF  A$lab-5$1924                       lab_5
C:   000003D1  A$lab-5$1925                       lab_5
C:   000003D2  A$lab-5$1926                       lab_5
C:   000003D3  A$lab-5$1927                       lab_5
C:   000003D4  A$lab-5$1928                       lab_5
ASxxxx Linker V03.00 + NoICE + sdld,  page 39.
Hexadecimal  [32-Bits]

Area                                    Addr        Size        Decimal Bytes (Attributes)
--------------------------------        ----        ----        ------- ----- ------------
CSEG                                000000FA    00001878 =        6264. bytes (REL,CON,CODE)

      Value  Global                              Global Defined In Module
      -----  --------------------------------   ------------------------
C:   000003D5  A$lab-5$1929                       lab_5
C:   000003D6  A$lab-5$1930                       lab_5
C:   000003D7  A$lab-5$1931                       lab_5
C:   000003D8  A$lab-5$1932                       lab_5
C:   000003DA  A$lab-5$1933                       lab_5
C:   000003DB  A$lab-5$1934                       lab_5
C:   000003DC  A$lab-5$1935                       lab_5
C:   000003DE  A$lab-5$1936                       lab_5
C:   000003DF  A$lab-5$1940                       lab_5
C:   000003DF  C$i2c.h$179$3$92                   lab_5
C:   000003E1  A$lab-5$1941                       lab_5
C:   000003E3  A$lab-5$1942                       lab_5
C:   000003E5  A$lab-5$1943                       lab_5
C:   000003E7  A$lab-5$1944                       lab_5
C:   000003EA  A$lab-5$1945                       lab_5
C:   000003EC  A$lab-5$1946                       lab_5
C:   000003EE  A$lab-5$1947                       lab_5
C:   000003F0  A$lab-5$1948                       lab_5
C:   000003F2  A$lab-5$1949                       lab_5
C:   000003F4  A$lab-5$1950                       lab_5
C:   000003F5  A$lab-5$1951                       lab_5
C:   000003F8  A$lab-5$1952                       lab_5
C:   000003FB  A$lab-5$1953                       lab_5
C:   000003FC  A$lab-5$1954                       lab_5
C:   000003FE  A$lab-5$1955                       lab_5
C:   00000400  A$lab-5$1956                       lab_5
C:   00000402  A$lab-5$1957                       lab_5
C:   00000404  A$lab-5$1958                       lab_5
C:   00000406  A$lab-5$1959                       lab_5
C:   00000409  A$lab-5$1960                       lab_5
C:   0000040B  A$lab-5$1961                       lab_5
C:   0000040D  A$lab-5$1962                       lab_5
C:   0000040F  A$lab-5$1963                       lab_5
C:   00000411  A$lab-5$1964                       lab_5
C:   00000413  A$lab-5$1968                       lab_5
C:   00000413  C$i2c.h$167$1$89                   lab_5
C:   00000414  A$lab-5$1969                       lab_5
C:   00000417  A$lab-5$1971                       lab_5
C:   00000419  A$lab-5$1972                       lab_5
C:   0000041C  A$lab-5$1976                       lab_5
C:   0000041C  C$i2c.h$182$1$89                   lab_5
C:   0000041E  A$lab-5$1977                       lab_5
C:   00000420  A$lab-5$1981                       lab_5
C:   00000420  C$i2c.h$183$1$89                   lab_5
C:   00000420  XG$kpd_input$0$0                   lab_5
C:   00000421  A$lab-5$1995                       lab_5
C:   00000421  C$i2c.h$192$1$89                   lab_5
C:   00000421  G$delay_time$0$0                   lab_5
C:   00000421  _delay_time                        lab_5
C:   00000423  A$lab-5$1996                       lab_5
C:   00000425  A$lab-5$1997                       lab_5
ASxxxx Linker V03.00 + NoICE + sdld,  page 40.
Hexadecimal  [32-Bits]

Area                                    Addr        Size        Decimal Bytes (Attributes)
--------------------------------        ----        ----        ------- ----- ------------
CSEG                                000000FA    00001878 =        6264. bytes (REL,CON,CODE)

      Value  Global                              Global Defined In Module
      -----  --------------------------------   ------------------------
C:   00000427  A$lab-5$1998                       lab_5
C:   00000428  A$lab-5$2001                       lab_5
C:   00000428  C$i2c.h$196$1$94                   lab_5
C:   0000042A  A$lab-5$2002                       lab_5
C:   0000042C  A$lab-5$2003                       lab_5
C:   0000042E  A$lab-5$2004                       lab_5
C:   00000430  A$lab-5$2006                       lab_5
C:   00000431  A$lab-5$2007                       lab_5
C:   00000432  A$lab-5$2008                       lab_5
C:   00000433  A$lab-5$2009                       lab_5
C:   00000434  A$lab-5$2010                       lab_5
C:   00000435  A$lab-5$2011                       lab_5
C:   00000436  A$lab-5$2012                       lab_5
C:   00000437  A$lab-5$2013                       lab_5
C:   00000438  A$lab-5$2014                       lab_5
C:   00000439  A$lab-5$2015                       lab_5
C:   0000043B  A$lab-5$2016                       lab_5
C:   0000043C  A$lab-5$2017                       lab_5
C:   0000043F  A$lab-5$2018                       lab_5
C:   00000440  A$lab-5$2019                       lab_5
C:   00000443  A$lab-5$2020                       lab_5
C:   00000444  A$lab-5$2021                       lab_5
C:   00000447  A$lab-5$2022                       lab_5
C:   00000448  A$lab-5$2024                       lab_5
C:   0000044A  A$lab-5$2028                       lab_5
C:   0000044A  C$i2c.h$197$1$94                   lab_5
C:   0000044A  XG$delay_time$0$0                  lab_5
C:   0000044B  A$lab-5$2042                       lab_5
C:   0000044B  C$i2c.h$200$1$94                   lab_5
C:   0000044B  C$i2c.h$202$1$96                   lab_5
C:   0000044B  G$i2c_start$0$0                    lab_5
C:   0000044B  _i2c_start                         lab_5
C:   0000044E  A$lab-5$2045                       lab_5
C:   0000044E  C$i2c.h$203$1$96                   lab_5
C:   00000450  A$lab-5$2049                       lab_5
C:   00000450  C$i2c.h$204$1$96                   lab_5
C:   00000453  A$lab-5$2052                       lab_5
C:   00000453  C$i2c.h$205$1$96                   lab_5
C:   00000455  A$lab-5$2055                       lab_5
C:   00000455  C$i2c.h$206$1$96                   lab_5
C:   00000457  A$lab-5$2058                       lab_5
C:   00000457  C$i2c.h$207$1$96                   lab_5
C:   00000457  XG$i2c_start$0$0                   lab_5
C:   00000458  A$lab-5$2071                       lab_5
C:   00000458  C$i2c.h$210$1$96                   lab_5
C:   00000458  G$i2c_write$0$0                    lab_5
C:   00000458  _i2c_write                         lab_5
C:   0000045B  A$lab-5$2077                       lab_5
C:   0000045B  C$i2c.h$213$1$98                   lab_5
C:   0000045B  C$i2c.h$214$1$98                   lab_5
C:   0000045E  A$lab-5$2078                       lab_5
ASxxxx Linker V03.00 + NoICE + sdld,  page 41.
Hexadecimal  [32-Bits]

Area                                    Addr        Size        Decimal Bytes (Attributes)
--------------------------------        ----        ----        ------- ----- ------------
CSEG                                000000FA    00001878 =        6264. bytes (REL,CON,CODE)

      Value  Global                              Global Defined In Module
      -----  --------------------------------   ------------------------
C:   00000460  A$lab-5$2082                       lab_5
C:   00000460  C$i2c.h$215$1$98                   lab_5
C:   00000460  XG$i2c_write$0$0                   lab_5
C:   00000461  A$lab-5$2095                       lab_5
C:   00000461  C$i2c.h$218$1$98                   lab_5
C:   00000461  G$i2c_write_and_stop$0$0           lab_5
C:   00000461  _i2c_write_and_stop                lab_5
C:   00000464  A$lab-5$2098                       lab_5
C:   00000464  C$i2c.h$221$1$100                  lab_5
C:   00000466  A$lab-5$2104                       lab_5
C:   00000466  C$i2c.h$222$1$100                  lab_5
C:   00000466  C$i2c.h$223$1$100                  lab_5
C:   00000469  A$lab-5$2105                       lab_5
C:   0000046B  A$lab-5$2109                       lab_5
C:   0000046B  C$i2c.h$224$1$100                  lab_5
C:   0000046B  XG$i2c_write_and_stop$0$0          lab_5
C:   0000046C  A$lab-5$2125                       lab_5
C:   0000046C  C$i2c.h$227$1$100                  lab_5
C:   0000046C  C$i2c.h$231$1$102                  lab_5
C:   0000046C  G$i2c_read$0$0                     lab_5
C:   0000046C  _i2c_read                          lab_5
C:   0000046F  A$lab-5$2128                       lab_5
C:   0000046F  C$i2c.h$232$1$102                  lab_5
C:   00000472  A$lab-5$2131                       lab_5
C:   00000472  C$i2c.h$233$1$102                  lab_5
C:   00000474  A$lab-5$2136                       lab_5
C:   00000474  C$i2c.h$234$1$102                  lab_5
C:   00000474  C$i2c.h$235$1$102                  lab_5
C:   00000474  XG$i2c_read$0$0                    lab_5
C:   00000475  A$lab-5$2152                       lab_5
C:   00000475  C$i2c.h$238$1$102                  lab_5
C:   00000475  C$i2c.h$242$1$104                  lab_5
C:   00000475  G$i2c_read_and_stop$0$0            lab_5
C:   00000475  _i2c_read_and_stop                 lab_5
C:   00000478  A$lab-5$2155                       lab_5
C:   00000478  C$i2c.h$243$1$104                  lab_5
C:   0000047A  A$lab-5$2158                       lab_5
C:   0000047A  C$i2c.h$244$1$104                  lab_5
C:   0000047C  A$lab-5$2161                       lab_5
C:   0000047C  C$i2c.h$245$1$104                  lab_5
C:   0000047E  A$lab-5$2167                       lab_5
C:   0000047E  C$i2c.h$246$1$104                  lab_5
C:   0000047E  C$i2c.h$247$1$104                  lab_5
C:   00000481  A$lab-5$2168                       lab_5
C:   00000483  A$lab-5$2172                       lab_5
C:   00000483  C$i2c.h$248$1$104                  lab_5
C:   00000485  A$lab-5$2175                       lab_5
C:   00000485  C$i2c.h$249$1$104                  lab_5
C:   00000485  XG$i2c_read_and_stop$0$0           lab_5
C:   00000486  A$lab-5$2192                       lab_5
C:   00000486  C$i2c.h$252$1$104                  lab_5
ASxxxx Linker V03.00 + NoICE + sdld,  page 42.
Hexadecimal  [32-Bits]

Area                                    Addr        Size        Decimal Bytes (Attributes)
--------------------------------        ----        ----        ------- ----- ------------
CSEG                                000000FA    00001878 =        6264. bytes (REL,CON,CODE)

      Value  Global                              Global Defined In Module
      -----  --------------------------------   ------------------------
C:   00000486  G$i2c_write_data$0$0               lab_5
C:   00000486  _i2c_write_data                    lab_5
C:   00000488  A$lab-5$2195                       lab_5
C:   00000488  C$i2c.h$256$1$106                  lab_5
C:   0000048A  A$lab-5$2198                       lab_5
C:   0000048A  C$i2c.h$257$1$106                  lab_5
C:   0000048C  A$lab-5$2199                       lab_5
C:   0000048F  A$lab-5$2200                       lab_5
C:   00000491  A$lab-5$2203                       lab_5
C:   00000491  C$i2c.h$258$1$106                  lab_5
C:   00000493  A$lab-5$2204                       lab_5
C:   00000494  A$lab-5$2205                       lab_5
C:   00000496  A$lab-5$2206                       lab_5
C:   00000499  A$lab-5$2209                       lab_5
C:   00000499  C$i2c.h$259$1$106                  lab_5
C:   0000049C  A$lab-5$2210                       lab_5
C:   0000049F  A$lab-5$2213                       lab_5
C:   000004A1  A$lab-5$2215                       lab_5
C:   000004A3  A$lab-5$2216                       lab_5
C:   000004A5  A$lab-5$2217                       lab_5
C:   000004A6  A$lab-5$2218                       lab_5
C:   000004A9  A$lab-5$2219                       lab_5
C:   000004AA  A$lab-5$2221                       lab_5
C:   000004AC  A$lab-5$2222                       lab_5
C:   000004AE  A$lab-5$2223                       lab_5
C:   000004AF  A$lab-5$2224                       lab_5
C:   000004B0  A$lab-5$2225                       lab_5
C:   000004B1  A$lab-5$2226                       lab_5
C:   000004B2  A$lab-5$2227                       lab_5
C:   000004B4  A$lab-5$2228                       lab_5
C:   000004B6  A$lab-5$2229                       lab_5
C:   000004B9  A$lab-5$2230                       lab_5
C:   000004BB  A$lab-5$2231                       lab_5
C:   000004BD  A$lab-5$2234                       lab_5
C:   000004BD  C$i2c.h$261$1$106                  lab_5
C:   000004BE  A$lab-5$2235                       lab_5
C:   000004C0  A$lab-5$2236                       lab_5
C:   000004C1  A$lab-5$2237                       lab_5
C:   000004C2  A$lab-5$2238                       lab_5
C:   000004C4  A$lab-5$2239                       lab_5
C:   000004C5  A$lab-5$2240                       lab_5
C:   000004C7  A$lab-5$2241                       lab_5
C:   000004C9  A$lab-5$2242                       lab_5
C:   000004CB  A$lab-5$2243                       lab_5
C:   000004CD  A$lab-5$2244                       lab_5
C:   000004D0  A$lab-5$2245                       lab_5
C:   000004D2  A$lab-5$2246                       lab_5
C:   000004D4  A$lab-5$2247                       lab_5
C:   000004D7  A$lab-5$2248                       lab_5
C:   000004D9  A$lab-5$2251                       lab_5
C:   000004D9  C$i2c.h$260$1$106                  lab_5
ASxxxx Linker V03.00 + NoICE + sdld,  page 43.
Hexadecimal  [32-Bits]

Area                                    Addr        Size        Decimal Bytes (Attributes)
--------------------------------        ----        ----        ------- ----- ------------
CSEG                                000000FA    00001878 =        6264. bytes (REL,CON,CODE)

      Value  Global                              Global Defined In Module
      -----  --------------------------------   ------------------------
C:   000004DA  A$lab-5$2252                       lab_5
C:   000004DC  A$lab-5$2256                       lab_5
C:   000004DC  C$i2c.h$262$1$106                  lab_5
C:   000004DE  A$lab-5$2257                       lab_5
C:   000004E0  A$lab-5$2258                       lab_5
C:   000004E1  A$lab-5$2259                       lab_5
C:   000004E4  A$lab-5$2260                       lab_5
C:   000004E5  A$lab-5$2262                       lab_5
C:   000004E6  A$lab-5$2263                       lab_5
C:   000004E8  A$lab-5$2264                       lab_5
C:   000004E9  A$lab-5$2265                       lab_5
C:   000004EA  A$lab-5$2266                       lab_5
C:   000004EC  A$lab-5$2267                       lab_5
C:   000004ED  A$lab-5$2268                       lab_5
C:   000004EF  A$lab-5$2269                       lab_5
C:   000004F1  A$lab-5$2270                       lab_5
C:   000004F3  A$lab-5$2271                       lab_5
C:   000004F5  A$lab-5$2272                       lab_5
C:   000004F8  A$lab-5$2273                       lab_5
C:   000004FA  A$lab-5$2274                       lab_5
C:   000004FD  A$lab-5$2277                       lab_5
C:   000004FD  C$i2c.h$263$1$106                  lab_5
C:   000004FF  A$lab-5$2280                       lab_5
C:   000004FF  C$i2c.h$264$1$106                  lab_5
C:   000004FF  XG$i2c_write_data$0$0              lab_5
C:   00000500  A$lab-5$2297                       lab_5
C:   00000500  C$i2c.h$267$1$106                  lab_5
C:   00000500  G$i2c_read_data$0$0                lab_5
C:   00000500  _i2c_read_data                     lab_5
C:   00000502  A$lab-5$2300                       lab_5
C:   00000502  C$i2c.h$271$1$108                  lab_5
C:   00000504  A$lab-5$2303                       lab_5
C:   00000504  C$i2c.h$272$1$108                  lab_5
C:   00000506  A$lab-5$2304                       lab_5
C:   00000509  A$lab-5$2305                       lab_5
C:   0000050B  A$lab-5$2308                       lab_5
C:   0000050B  C$i2c.h$273$1$108                  lab_5
C:   0000050D  A$lab-5$2309                       lab_5
C:   0000050E  A$lab-5$2310                       lab_5
C:   00000510  A$lab-5$2311                       lab_5
C:   00000512  A$lab-5$2312                       lab_5
C:   00000515  A$lab-5$2315                       lab_5
C:   00000515  C$i2c.h$274$1$108                  lab_5
C:   00000518  A$lab-5$2316                       lab_5
C:   0000051B  A$lab-5$2319                       lab_5
C:   0000051B  C$i2c.h$275$1$108                  lab_5
C:   0000051E  A$lab-5$2320                       lab_5
C:   00000520  A$lab-5$2323                       lab_5
C:   00000520  C$i2c.h$276$1$108                  lab_5
C:   00000522  A$lab-5$2324                       lab_5
C:   00000523  A$lab-5$2325                       lab_5
ASxxxx Linker V03.00 + NoICE + sdld,  page 44.
Hexadecimal  [32-Bits]

Area                                    Addr        Size        Decimal Bytes (Attributes)
--------------------------------        ----        ----        ------- ----- ------------
CSEG                                000000FA    00001878 =        6264. bytes (REL,CON,CODE)

      Value  Global                              Global Defined In Module
      -----  --------------------------------   ------------------------
C:   00000525  A$lab-5$2326                       lab_5
C:   00000528  A$lab-5$2329                       lab_5
C:   0000052A  A$lab-5$2331                       lab_5
C:   0000052C  A$lab-5$2332                       lab_5
C:   0000052E  A$lab-5$2333                       lab_5
C:   0000052F  A$lab-5$2334                       lab_5
C:   00000532  A$lab-5$2335                       lab_5
C:   00000533  A$lab-5$2337                       lab_5
C:   00000535  A$lab-5$2338                       lab_5
C:   00000537  A$lab-5$2339                       lab_5
C:   00000538  A$lab-5$2340                       lab_5
C:   00000539  A$lab-5$2341                       lab_5
C:   0000053A  A$lab-5$2342                       lab_5
C:   0000053B  A$lab-5$2343                       lab_5
C:   0000053D  A$lab-5$2344                       lab_5
C:   0000053F  A$lab-5$2345                       lab_5
C:   00000542  A$lab-5$2346                       lab_5
C:   00000544  A$lab-5$2347                       lab_5
C:   00000546  A$lab-5$2350                       lab_5
C:   00000546  C$i2c.h$279$2$109                  lab_5
C:   00000548  A$lab-5$2353                       lab_5
C:   00000548  C$i2c.h$280$2$109                  lab_5
C:   00000549  A$lab-5$2354                       lab_5
C:   0000054B  A$lab-5$2355                       lab_5
C:   0000054C  A$lab-5$2356                       lab_5
C:   0000054D  A$lab-5$2357                       lab_5
C:   0000054F  A$lab-5$2358                       lab_5
C:   00000550  A$lab-5$2359                       lab_5
C:   00000552  A$lab-5$2360                       lab_5
C:   00000554  A$lab-5$2361                       lab_5
C:   00000556  A$lab-5$2362                       lab_5
C:   00000558  A$lab-5$2363                       lab_5
C:   0000055A  A$lab-5$2364                       lab_5
C:   0000055D  A$lab-5$2365                       lab_5
C:   0000055F  A$lab-5$2366                       lab_5
C:   00000561  A$lab-5$2367                       lab_5
C:   00000563  A$lab-5$2368                       lab_5
C:   00000565  A$lab-5$2369                       lab_5
C:   00000567  A$lab-5$2370                       lab_5
C:   00000569  A$lab-5$2371                       lab_5
C:   0000056B  A$lab-5$2372                       lab_5
C:   0000056D  A$lab-5$2373                       lab_5
C:   0000056E  A$lab-5$2374                       lab_5
C:   00000571  A$lab-5$2377                       lab_5
C:   00000571  C$i2c.h$277$1$108                  lab_5
C:   00000572  A$lab-5$2378                       lab_5
C:   00000574  A$lab-5$2382                       lab_5
C:   00000574  C$i2c.h$282$1$108                  lab_5
C:   00000576  A$lab-5$2385                       lab_5
C:   00000576  C$i2c.h$283$1$108                  lab_5
C:   00000578  A$lab-5$2386                       lab_5
ASxxxx Linker V03.00 + NoICE + sdld,  page 45.
Hexadecimal  [32-Bits]

Area                                    Addr        Size        Decimal Bytes (Attributes)
--------------------------------        ----        ----        ------- ----- ------------
CSEG                                000000FA    00001878 =        6264. bytes (REL,CON,CODE)

      Value  Global                              Global Defined In Module
      -----  --------------------------------   ------------------------
C:   0000057A  A$lab-5$2387                       lab_5
C:   0000057B  A$lab-5$2388                       lab_5
C:   0000057E  A$lab-5$2389                       lab_5
C:   0000057F  A$lab-5$2391                       lab_5
C:   00000580  A$lab-5$2392                       lab_5
C:   00000582  A$lab-5$2393                       lab_5
C:   00000583  A$lab-5$2394                       lab_5
C:   00000584  A$lab-5$2395                       lab_5
C:   00000586  A$lab-5$2396                       lab_5
C:   00000587  A$lab-5$2397                       lab_5
C:   00000589  A$lab-5$2398                       lab_5
C:   0000058B  A$lab-5$2399                       lab_5
C:   0000058D  A$lab-5$2400                       lab_5
C:   0000058F  A$lab-5$2401                       lab_5
C:   00000592  A$lab-5$2402                       lab_5
C:   00000594  A$lab-5$2403                       lab_5
C:   00000596  A$lab-5$2404                       lab_5
C:   00000598  A$lab-5$2405                       lab_5
C:   0000059A  A$lab-5$2406                       lab_5
C:   0000059C  A$lab-5$2407                       lab_5
C:   0000059E  A$lab-5$2408                       lab_5
C:   000005A0  A$lab-5$2409                       lab_5
C:   000005A1  A$lab-5$2410                       lab_5
C:   000005A4  A$lab-5$2413                       lab_5
C:   000005A4  C$i2c.h$284$1$108                  lab_5
C:   000005A6  A$lab-5$2416                       lab_5
C:   000005A6  C$i2c.h$285$1$108                  lab_5
C:   000005A6  XG$i2c_read_data$0$0               lab_5
C:   000005A7  A$lab-5$2429                       lab_5
C:   000005A7  C$i2c.h$294$1$108                  lab_5
C:   000005A7  C$i2c.h$298$1$111                  lab_5
C:   000005A7  G$Accel_Init$0$0                   lab_5
C:   000005A7  _Accel_Init                        lab_5
C:   000005AA  A$lab-5$2432                       lab_5
C:   000005AA  C$i2c.h$300$1$111                  lab_5
C:   000005AD  A$lab-5$2435                       lab_5
C:   000005AD  C$i2c.h$301$1$111                  lab_5
C:   000005B0  A$lab-5$2438                       lab_5
C:   000005B0  C$i2c.h$302$1$111                  lab_5
C:   000005B3  A$lab-5$2441                       lab_5
C:   000005B3  C$i2c.h$304$1$111                  lab_5
C:   000005B6  A$lab-5$2442                       lab_5
C:   000005B9  A$lab-5$2443                       lab_5
C:   000005BC  A$lab-5$2444                       lab_5
C:   000005BF  A$lab-5$2445                       lab_5
C:   000005C2  A$lab-5$2446                       lab_5
C:   000005C5  A$lab-5$2447                       lab_5
C:   000005C8  A$lab-5$2450                       lab_5
C:   000005C8  C$i2c.h$310$1$111                  lab_5
C:   000005C8  XG$Accel_Init$0$0                  lab_5
C:   000005C9  A$lab-5$2463                       lab_5
ASxxxx Linker V03.00 + NoICE + sdld,  page 46.
Hexadecimal  [32-Bits]

Area                                    Addr        Size        Decimal Bytes (Attributes)
--------------------------------        ----        ----        ------- ----- ------------
CSEG                                000000FA    00001878 =        6264. bytes (REL,CON,CODE)

      Value  Global                              Global Defined In Module
      -----  --------------------------------   ------------------------
C:   000005C9  C$i2c.h$313$1$111                  lab_5
C:   000005C9  C$i2c.h$318$1$113                  lab_5
C:   000005C9  G$Accel_Init_C$0$0                 lab_5
C:   000005C9  _Accel_Init_C                      lab_5
C:   000005CC  A$lab-5$2466                       lab_5
C:   000005CC  C$i2c.h$319$1$113                  lab_5
C:   000005CF  A$lab-5$2467                       lab_5
C:   000005D2  A$lab-5$2468                       lab_5
C:   000005D5  A$lab-5$2469                       lab_5
C:   000005D8  A$lab-5$2470                       lab_5
C:   000005DB  A$lab-5$2471                       lab_5
C:   000005DE  A$lab-5$2472                       lab_5
C:   000005E1  A$lab-5$2475                       lab_5
C:   000005E1  C$i2c.h$321$1$113                  lab_5
C:   000005E4  A$lab-5$2478                       lab_5
C:   000005E4  C$i2c.h$323$1$113                  lab_5
C:   000005E7  A$lab-5$2481                       lab_5
C:   000005E7  C$i2c.h$325$1$113                  lab_5
C:   000005EA  A$lab-5$2484                       lab_5
C:   000005EA  C$i2c.h$326$1$113                  lab_5
C:   000005ED  A$lab-5$2485                       lab_5
C:   000005F0  A$lab-5$2486                       lab_5
C:   000005F3  A$lab-5$2487                       lab_5
C:   000005F6  A$lab-5$2488                       lab_5
C:   000005F9  A$lab-5$2489                       lab_5
C:   000005FC  A$lab-5$2490                       lab_5
C:   000005FF  A$lab-5$2493                       lab_5
C:   000005FF  C$i2c.h$328$1$113                  lab_5
C:   000005FF  XG$Accel_Init_C$0$0                lab_5
C:   00000600  A$lab-5$2509                       lab_5
C:   00000600  C$lab_5.c$65$1$113                 lab_5
C:   00000600  C$lab_5.c$68$1$132                 lab_5
C:   00000600  G$main$0$0                         lab_5
C:   00000600  _main                              lab_5
C:   00000603  A$lab-5$2512                       lab_5
C:   00000603  C$lab_5.c$69$1$132                 lab_5
C:   00000606  A$lab-5$2513                       lab_5
C:   00000609  A$lab-5$2516                       lab_5
C:   00000609  C$lab_5.c$70$1$132                 lab_5
C:   0000060C  A$lab-5$2519                       lab_5
C:   0000060C  C$lab_5.c$71$1$132                 lab_5
C:   0000060F  A$lab-5$2522                       lab_5
C:   0000060F  C$lab_5.c$72$1$132                 lab_5
C:   00000612  A$lab-5$2525                       lab_5
C:   00000612  C$lab_5.c$73$1$132                 lab_5
C:   00000615  A$lab-5$2528                       lab_5
C:   00000615  C$lab_5.c$74$1$132                 lab_5
C:   00000618  A$lab-5$2531                       lab_5
C:   00000618  C$lab_5.c$75$1$132                 lab_5
C:   0000061B  A$lab-5$2534                       lab_5
C:   0000061B  C$lab_5.c$76$1$132                 lab_5
ASxxxx Linker V03.00 + NoICE + sdld,  page 47.
Hexadecimal  [32-Bits]

Area                                    Addr        Size        Decimal Bytes (Attributes)
--------------------------------        ----        ----        ------- ----- ------------
CSEG                                000000FA    00001878 =        6264. bytes (REL,CON,CODE)

      Value  Global                              Global Defined In Module
      -----  --------------------------------   ------------------------
C:   0000061E  A$lab-5$2537                       lab_5
C:   0000061E  C$lab_5.c$77$1$132                 lab_5
C:   00000621  A$lab-5$2540                       lab_5
C:   00000621  C$lab_5.c$79$1$132                 lab_5
C:   00000623  A$lab-5$2544                       lab_5
C:   00000623  C$lab_5.c$85$2$133                 lab_5
C:   00000626  A$lab-5$2545                       lab_5
C:   00000629  A$lab-5$2549                       lab_5
C:   00000629  C$lab_5.c$87$3$134                 lab_5
C:   0000062C  A$lab-5$2550                       lab_5
C:   0000062F  A$lab-5$2553                       lab_5
C:   0000062F  C$lab_5.c$88$3$134                 lab_5
C:   00000632  A$lab-5$2554                       lab_5
C:   00000635  A$lab-5$2557                       lab_5
C:   00000635  C$lab_5.c$90$3$134                 lab_5
C:   00000637  A$lab-5$2558                       lab_5
C:   00000638  A$lab-5$2559                       lab_5
C:   0000063A  A$lab-5$2560                       lab_5
C:   0000063C  A$lab-5$2561                       lab_5
C:   0000063E  A$lab-5$2562                       lab_5
C:   00000640  A$lab-5$2563                       lab_5
C:   00000642  A$lab-5$2566                       lab_5
C:   00000642  C$lab_5.c$91$3$134                 lab_5
C:   00000644  A$lab-5$2567                       lab_5
C:   00000645  A$lab-5$2568                       lab_5
C:   00000647  A$lab-5$2569                       lab_5
C:   00000649  A$lab-5$2570                       lab_5
C:   0000064B  A$lab-5$2571                       lab_5
C:   0000064D  A$lab-5$2572                       lab_5
C:   0000064F  A$lab-5$2575                       lab_5
C:   0000064F  C$lab_5.c$93$3$134                 lab_5
C:   00000651  A$lab-5$2578                       lab_5
C:   00000651  C$lab_5.c$94$3$134                 lab_5
C:   00000653  A$lab-5$2581                       lab_5
C:   00000653  C$lab_5.c$95$3$134                 lab_5
C:   00000654  A$lab-5$2582                       lab_5
C:   00000656  A$lab-5$2585                       lab_5
C:   00000656  C$lab_5.c$98$4$135                 lab_5
C:   00000659  A$lab-5$2588                       lab_5
C:   00000659  C$lab_5.c$99$4$135                 lab_5
C:   0000065B  A$lab-5$2589                       lab_5
C:   0000065D  A$lab-5$2590                       lab_5
C:   0000065F  A$lab-5$2591                       lab_5
C:   00000661  A$lab-5$2592                       lab_5
C:   00000663  A$lab-5$2593                       lab_5
C:   00000665  A$lab-5$2594                       lab_5
C:   00000668  A$lab-5$2595                       lab_5
C:   0000066A  A$lab-5$2596                       lab_5
C:   0000066C  A$lab-5$2597                       lab_5
C:   0000066E  A$lab-5$2603                       lab_5
C:   0000066E  C$lab_5.c$101$4$135                lab_5
ASxxxx Linker V03.00 + NoICE + sdld,  page 48.
Hexadecimal  [32-Bits]

Area                                    Addr        Size        Decimal Bytes (Attributes)
--------------------------------        ----        ----        ------- ----- ------------
CSEG                                000000FA    00001878 =        6264. bytes (REL,CON,CODE)

      Value  Global                              Global Defined In Module
      -----  --------------------------------   ------------------------
C:   0000066E  C$lab_5.c$102$5$136                lab_5
C:   00000671  A$lab-5$2604                       lab_5
C:   00000673  A$lab-5$2607                       lab_5
C:   00000673  C$lab_5.c$103$5$136                lab_5
C:   00000675  A$lab-5$2608                       lab_5
C:   00000678  A$lab-5$2609                       lab_5
C:   0000067A  A$lab-5$2612                       lab_5
C:   0000067A  C$lab_5.c$106$5$136                lab_5
C:   0000067D  A$lab-5$2613                       lab_5
C:   0000067F  A$lab-5$2618                       lab_5
C:   0000067F  C$lab_5.c$107$6$137                lab_5
C:   00000681  A$lab-5$2619                       lab_5
C:   00000684  A$lab-5$2620                       lab_5
C:   00000686  A$lab-5$2621                       lab_5
C:   00000688  A$lab-5$2622                       lab_5
C:   0000068B  A$lab-5$2625                       lab_5
C:   0000068B  C$lab_5.c$108$6$137                lab_5
C:   0000068D  A$lab-5$2626                       lab_5
C:   00000690  A$lab-5$2627                       lab_5
C:   00000692  A$lab-5$2630                       lab_5
C:   00000692  C$lab_5.c$109$6$137                lab_5
C:   00000695  A$lab-5$2633                       lab_5
C:   00000695  C$lab_5.c$110$7$138                lab_5
C:   00000698  A$lab-5$2636                       lab_5
C:   00000698  C$lab_5.c$111$7$138                lab_5
C:   0000069A  A$lab-5$2637                       lab_5
C:   0000069C  A$lab-5$2638                       lab_5
C:   0000069E  A$lab-5$2639                       lab_5
C:   000006A0  A$lab-5$2640                       lab_5
C:   000006A2  A$lab-5$2641                       lab_5
C:   000006A4  A$lab-5$2642                       lab_5
C:   000006A7  A$lab-5$2643                       lab_5
C:   000006A9  A$lab-5$2644                       lab_5
C:   000006AB  A$lab-5$2645                       lab_5
C:   000006AD  A$lab-5$2648                       lab_5
C:   000006AD  C$lab_5.c$112$7$138                lab_5
C:   000006B0  A$lab-5$2651                       lab_5
C:   000006B0  C$lab_5.c$117$4$135                lab_5
C:   000006B3  A$lab-5$2654                       lab_5
C:   000006B3  C$lab_5.c$118$4$135                lab_5
C:   000006B5  A$lab-5$2655                       lab_5
C:   000006B7  A$lab-5$2656                       lab_5
C:   000006B9  A$lab-5$2657                       lab_5
C:   000006BB  A$lab-5$2658                       lab_5
C:   000006BD  A$lab-5$2659                       lab_5
C:   000006BF  A$lab-5$2660                       lab_5
C:   000006C1  A$lab-5$2661                       lab_5
C:   000006C3  A$lab-5$2662                       lab_5
C:   000006C5  A$lab-5$2663                       lab_5
C:   000006C7  A$lab-5$2664                       lab_5
C:   000006CA  A$lab-5$2665                       lab_5
ASxxxx Linker V03.00 + NoICE + sdld,  page 49.
Hexadecimal  [32-Bits]

Area                                    Addr        Size        Decimal Bytes (Attributes)
--------------------------------        ----        ----        ------- ----- ------------
CSEG                                000000FA    00001878 =        6264. bytes (REL,CON,CODE)

      Value  Global                              Global Defined In Module
      -----  --------------------------------   ------------------------
C:   000006CC  A$lab-5$2666                       lab_5
C:   000006CE  A$lab-5$2667                       lab_5
C:   000006D0  A$lab-5$2670                       lab_5
C:   000006D0  C$lab_5.c$119$4$135                lab_5
C:   000006D3  A$lab-5$2673                       lab_5
C:   000006D3  C$lab_5.c$120$4$135                lab_5
C:   000006D6  A$lab-5$2676                       lab_5
C:   000006D6  C$lab_5.c$121$4$135                lab_5
C:   000006D8  A$lab-5$2677                       lab_5
C:   000006DA  A$lab-5$2678                       lab_5
C:   000006DC  A$lab-5$2679                       lab_5
C:   000006DE  A$lab-5$2680                       lab_5
C:   000006E0  A$lab-5$2681                       lab_5
C:   000006E2  A$lab-5$2682                       lab_5
C:   000006E5  A$lab-5$2683                       lab_5
C:   000006E7  A$lab-5$2684                       lab_5
C:   000006E9  A$lab-5$2685                       lab_5
C:   000006EB  A$lab-5$2691                       lab_5
C:   000006EB  C$lab_5.c$122$4$135                lab_5
C:   000006EB  C$lab_5.c$123$5$139                lab_5
C:   000006EE  A$lab-5$2692                       lab_5
C:   000006F0  A$lab-5$2695                       lab_5
C:   000006F0  C$lab_5.c$124$5$139                lab_5
C:   000006F2  A$lab-5$2696                       lab_5
C:   000006F5  A$lab-5$2697                       lab_5
C:   000006F7  A$lab-5$2700                       lab_5
C:   000006F7  C$lab_5.c$127$5$139                lab_5
C:   000006FA  A$lab-5$2701                       lab_5
C:   000006FC  A$lab-5$2706                       lab_5
C:   000006FC  C$lab_5.c$128$6$140                lab_5
C:   000006FE  A$lab-5$2707                       lab_5
C:   00000701  A$lab-5$2708                       lab_5
C:   00000703  A$lab-5$2709                       lab_5
C:   00000705  A$lab-5$2710                       lab_5
C:   00000708  A$lab-5$2713                       lab_5
C:   00000708  C$lab_5.c$129$6$140                lab_5
C:   0000070A  A$lab-5$2714                       lab_5
C:   0000070D  A$lab-5$2715                       lab_5
C:   0000070F  A$lab-5$2718                       lab_5
C:   0000070F  C$lab_5.c$130$6$140                lab_5
C:   00000712  A$lab-5$2721                       lab_5
C:   00000712  C$lab_5.c$131$7$141                lab_5
C:   00000715  A$lab-5$2724                       lab_5
C:   00000715  C$lab_5.c$132$7$141                lab_5
C:   00000717  A$lab-5$2725                       lab_5
C:   00000719  A$lab-5$2726                       lab_5
C:   0000071B  A$lab-5$2727                       lab_5
C:   0000071D  A$lab-5$2728                       lab_5
C:   0000071F  A$lab-5$2729                       lab_5
C:   00000721  A$lab-5$2730                       lab_5
C:   00000724  A$lab-5$2731                       lab_5
ASxxxx Linker V03.00 + NoICE + sdld,  page 50.
Hexadecimal  [32-Bits]

Area                                    Addr        Size        Decimal Bytes (Attributes)
--------------------------------        ----        ----        ------- ----- ------------
CSEG                                000000FA    00001878 =        6264. bytes (REL,CON,CODE)

      Value  Global                              Global Defined In Module
      -----  --------------------------------   ------------------------
C:   00000726  A$lab-5$2732                       lab_5
C:   00000728  A$lab-5$2733                       lab_5
C:   0000072A  A$lab-5$2736                       lab_5
C:   0000072A  C$lab_5.c$133$7$141                lab_5
C:   0000072D  A$lab-5$2739                       lab_5
C:   0000072D  C$lab_5.c$134$7$141                lab_5
C:   00000730  A$lab-5$2740                       lab_5
C:   00000733  A$lab-5$2743                       lab_5
C:   00000733  C$lab_5.c$135$7$141                lab_5
C:   00000735  A$lab-5$2744                       lab_5
C:   00000736  A$lab-5$2745                       lab_5
C:   00000738  A$lab-5$2746                       lab_5
C:   0000073A  A$lab-5$2747                       lab_5
C:   0000073C  A$lab-5$2748                       lab_5
C:   0000073E  A$lab-5$2749                       lab_5
C:   00000740  A$lab-5$2752                       lab_5
C:   00000740  C$lab_5.c$136$7$141                lab_5
C:   00000743  A$lab-5$2755                       lab_5
C:   00000743  C$lab_5.c$137$7$141                lab_5
C:   00000745  A$lab-5$2759                       lab_5
C:   00000745  C$lab_5.c$139$6$140                lab_5
C:   00000748  A$lab-5$2762                       lab_5
C:   00000748  C$lab_5.c$140$7$142                lab_5
C:   0000074B  A$lab-5$2765                       lab_5
C:   0000074B  C$lab_5.c$141$7$142                lab_5
C:   0000074D  A$lab-5$2766                       lab_5
C:   0000074F  A$lab-5$2767                       lab_5
C:   00000751  A$lab-5$2768                       lab_5
C:   00000753  A$lab-5$2769                       lab_5
C:   00000755  A$lab-5$2770                       lab_5
C:   00000757  A$lab-5$2771                       lab_5
C:   0000075A  A$lab-5$2772                       lab_5
C:   0000075C  A$lab-5$2773                       lab_5
C:   0000075E  A$lab-5$2774                       lab_5
C:   00000760  A$lab-5$2777                       lab_5
C:   00000760  C$lab_5.c$142$7$142                lab_5
C:   00000763  A$lab-5$2778                       lab_5
C:   00000766  A$lab-5$2781                       lab_5
C:   00000766  C$lab_5.c$143$7$142                lab_5
C:   00000768  A$lab-5$2782                       lab_5
C:   00000769  A$lab-5$2783                       lab_5
C:   0000076B  A$lab-5$2784                       lab_5
C:   0000076D  A$lab-5$2785                       lab_5
C:   0000076F  A$lab-5$2786                       lab_5
C:   00000771  A$lab-5$2787                       lab_5
C:   00000773  A$lab-5$2790                       lab_5
C:   00000773  C$lab_5.c$144$7$142                lab_5
C:   00000776  A$lab-5$2793                       lab_5
C:   00000776  C$lab_5.c$145$7$142                lab_5
C:   00000779  A$lab-5$2799                       lab_5
C:   00000779  C$lab_5.c$146$4$135                lab_5
ASxxxx Linker V03.00 + NoICE + sdld,  page 51.
Hexadecimal  [32-Bits]

Area                                    Addr        Size        Decimal Bytes (Attributes)
--------------------------------        ----        ----        ------- ----- ------------
CSEG                                000000FA    00001878 =        6264. bytes (REL,CON,CODE)

      Value  Global                              Global Defined In Module
      -----  --------------------------------   ------------------------
C:   00000779  C$lab_5.c$150$4$135                lab_5
C:   0000077B  A$lab-5$2800                       lab_5
C:   0000077E  A$lab-5$2804                       lab_5
C:   0000077E  C$lab_5.c$154$2$133                lab_5
C:   0000077F  A$lab-5$2805                       lab_5
C:   00000781  A$lab-5$2806                       lab_5
C:   00000783  A$lab-5$2807                       lab_5
C:   00000785  A$lab-5$2808                       lab_5
C:   00000787  A$lab-5$2809                       lab_5
C:   00000789  A$lab-5$2812                       lab_5
C:   00000789  C$lab_5.c$155$3$143                lab_5
C:   0000078B  A$lab-5$2815                       lab_5
C:   0000078B  C$lab_5.c$156$3$143                lab_5
C:   0000078D  A$lab-5$2819                       lab_5
C:   0000078D  C$lab_5.c$158$2$133                lab_5
C:   0000078E  A$lab-5$2820                       lab_5
C:   00000790  A$lab-5$2821                       lab_5
C:   00000792  A$lab-5$2822                       lab_5
C:   00000794  A$lab-5$2823                       lab_5
C:   00000796  A$lab-5$2824                       lab_5
C:   00000798  A$lab-5$2827                       lab_5
C:   00000798  C$lab_5.c$159$3$144                lab_5
C:   0000079A  A$lab-5$2830                       lab_5
C:   0000079A  C$lab_5.c$160$3$144                lab_5
C:   0000079C  A$lab-5$2834                       lab_5
C:   0000079C  C$lab_5.c$162$2$133                lab_5
C:   0000079E  A$lab-5$2835                       lab_5
C:   000007A1  A$lab-5$2836                       lab_5
C:   000007A3  A$lab-5$2837                       lab_5
C:   000007A6  A$lab-5$2840                       lab_5
C:   000007A6  C$lab_5.c$163$3$145                lab_5
C:   000007A8  A$lab-5$2843                       lab_5
C:   000007A8  C$lab_5.c$164$3$145                lab_5
C:   000007AA  A$lab-5$2847                       lab_5
C:   000007AA  C$lab_5.c$167$2$133                lab_5
C:   000007AC  A$lab-5$2848                       lab_5
C:   000007AE  A$lab-5$2849                       lab_5
C:   000007B1  A$lab-5$2853                       lab_5
C:   000007B1  C$lab_5.c$169$3$146                lab_5
C:   000007B3  A$lab-5$2854                       lab_5
C:   000007B6  A$lab-5$2855                       lab_5
C:   000007B8  A$lab-5$2858                       lab_5
C:   000007B8  C$lab_5.c$170$3$146                lab_5
C:   000007B9  A$lab-5$2859                       lab_5
C:   000007BB  A$lab-5$2860                       lab_5
C:   000007BD  A$lab-5$2861                       lab_5
C:   000007BF  A$lab-5$2862                       lab_5
C:   000007C1  A$lab-5$2863                       lab_5
C:   000007C3  A$lab-5$2864                       lab_5
C:   000007C5  A$lab-5$2865                       lab_5
C:   000007C6  A$lab-5$2866                       lab_5
ASxxxx Linker V03.00 + NoICE + sdld,  page 52.
Hexadecimal  [32-Bits]

Area                                    Addr        Size        Decimal Bytes (Attributes)
--------------------------------        ----        ----        ------- ----- ------------
CSEG                                000000FA    00001878 =        6264. bytes (REL,CON,CODE)

      Value  Global                              Global Defined In Module
      -----  --------------------------------   ------------------------
C:   000007C8  A$lab-5$2867                       lab_5
C:   000007CA  A$lab-5$2868                       lab_5
C:   000007CC  A$lab-5$2869                       lab_5
C:   000007CF  A$lab-5$2870                       lab_5
C:   000007D2  A$lab-5$2871                       lab_5
C:   000007D4  A$lab-5$2872                       lab_5
C:   000007D6  A$lab-5$2873                       lab_5
C:   000007D8  A$lab-5$2874                       lab_5
C:   000007DA  A$lab-5$2877                       lab_5
C:   000007DA  C$lab_5.c$171$4$147                lab_5
C:   000007DC  A$lab-5$2878                       lab_5
C:   000007DE  A$lab-5$2882                       lab_5
C:   000007DE  C$lab_5.c$173$3$146                lab_5
C:   000007E0  A$lab-5$2883                       lab_5
C:   000007E2  A$lab-5$2886                       lab_5
C:   000007E2  C$lab_5.c$174$4$148                lab_5
C:   000007E5  A$lab-5$2890                       lab_5
C:   000007E5  C$lab_5.c$177$3$146                lab_5
C:   000007E7  A$lab-5$2891                       lab_5
C:   000007E9  A$lab-5$2892                       lab_5
C:   000007EB  A$lab-5$2895                       lab_5
C:   000007EB  C$lab_5.c$178$4$149                lab_5
C:   000007EE  A$lab-5$2899                       lab_5
C:   000007EE  C$lab_5.c$181$3$146                lab_5
C:   000007F0  A$lab-5$2900                       lab_5
C:   000007F2  A$lab-5$2901                       lab_5
C:   000007F5  A$lab-5$2905                       lab_5
C:   000007F5  C$lab_5.c$182$4$150                lab_5
C:   000007F7  A$lab-5$2906                       lab_5
C:   000007FA  A$lab-5$2909                       lab_5
C:   000007FA  C$lab_5.c$183$5$151                lab_5
C:   000007FD  A$lab-5$2910                       lab_5
C:   00000800  A$lab-5$2913                       lab_5
C:   00000800  C$lab_5.c$184$5$151                lab_5
C:   00000802  A$lab-5$2914                       lab_5
C:   00000803  A$lab-5$2915                       lab_5
C:   00000805  A$lab-5$2916                       lab_5
C:   00000807  A$lab-5$2917                       lab_5
C:   00000809  A$lab-5$2918                       lab_5
C:   0000080B  A$lab-5$2919                       lab_5
C:   0000080D  A$lab-5$2922                       lab_5
C:   0000080D  C$lab_5.c$185$5$151                lab_5
C:   00000810  A$lab-5$2923                       lab_5
C:   00000813  A$lab-5$2924                       lab_5
C:   00000815  A$lab-5$2925                       lab_5
C:   00000818  A$lab-5$2926                       lab_5
C:   0000081B  A$lab-5$2927                       lab_5
C:   0000081D  A$lab-5$2930                       lab_5
C:   0000081D  C$lab_5.c$186$5$151                lab_5
C:   0000081F  A$lab-5$2931                       lab_5
C:   00000822  A$lab-5$2932                       lab_5
ASxxxx Linker V03.00 + NoICE + sdld,  page 53.
Hexadecimal  [32-Bits]

Area                                    Addr        Size        Decimal Bytes (Attributes)
--------------------------------        ----        ----        ------- ----- ------------
CSEG                                000000FA    00001878 =        6264. bytes (REL,CON,CODE)

      Value  Global                              Global Defined In Module
      -----  --------------------------------   ------------------------
C:   00000823  A$lab-5$2933                       lab_5
C:   00000824  A$lab-5$2934                       lab_5
C:   00000826  A$lab-5$2935                       lab_5
C:   00000828  A$lab-5$2936                       lab_5
C:   00000829  A$lab-5$2937                       lab_5
C:   0000082A  A$lab-5$2938                       lab_5
C:   0000082C  A$lab-5$2939                       lab_5
C:   0000082E  A$lab-5$2940                       lab_5
C:   0000082F  A$lab-5$2941                       lab_5
C:   00000831  A$lab-5$2944                       lab_5
C:   00000831  C$lab_5.c$187$5$151                lab_5
C:   00000832  A$lab-5$2945                       lab_5
C:   00000834  A$lab-5$2946                       lab_5
C:   00000836  A$lab-5$2947                       lab_5
C:   00000838  A$lab-5$2948                       lab_5
C:   0000083A  A$lab-5$2949                       lab_5
C:   0000083C  A$lab-5$2952                       lab_5
C:   0000083C  C$lab_5.c$188$6$152                lab_5
C:   0000083F  A$lab-5$2953                       lab_5
C:   00000842  A$lab-5$2957                       lab_5
C:   00000842  C$lab_5.c$190$5$151                lab_5
C:   00000844  A$lab-5$2958                       lab_5
C:   00000845  A$lab-5$2959                       lab_5
C:   00000847  A$lab-5$2960                       lab_5
C:   00000849  A$lab-5$2961                       lab_5
C:   0000084B  A$lab-5$2962                       lab_5
C:   0000084D  A$lab-5$2963                       lab_5
C:   0000084F  A$lab-5$2967                       lab_5
C:   0000084F  C$lab_5.c$193$4$150                lab_5
C:   00000851  A$lab-5$2968                       lab_5
C:   00000854  A$lab-5$2971                       lab_5
C:   00000854  C$lab_5.c$194$5$153                lab_5
C:   00000857  A$lab-5$2972                       lab_5
C:   0000085A  A$lab-5$2975                       lab_5
C:   0000085A  C$lab_5.c$195$5$153                lab_5
C:   0000085C  A$lab-5$2976                       lab_5
C:   0000085D  A$lab-5$2977                       lab_5
C:   0000085F  A$lab-5$2978                       lab_5
C:   00000861  A$lab-5$2979                       lab_5
C:   00000863  A$lab-5$2980                       lab_5
C:   00000865  A$lab-5$2981                       lab_5
C:   00000867  A$lab-5$2984                       lab_5
C:   00000867  C$lab_5.c$196$5$153                lab_5
C:   0000086A  A$lab-5$2985                       lab_5
C:   0000086D  A$lab-5$2986                       lab_5
C:   0000086F  A$lab-5$2987                       lab_5
C:   00000872  A$lab-5$2988                       lab_5
C:   00000875  A$lab-5$2989                       lab_5
C:   00000877  A$lab-5$2992                       lab_5
C:   00000877  C$lab_5.c$197$5$153                lab_5
C:   00000879  A$lab-5$2993                       lab_5
ASxxxx Linker V03.00 + NoICE + sdld,  page 54.
Hexadecimal  [32-Bits]

Area                                    Addr        Size        Decimal Bytes (Attributes)
--------------------------------        ----        ----        ------- ----- ------------
CSEG                                000000FA    00001878 =        6264. bytes (REL,CON,CODE)

      Value  Global                              Global Defined In Module
      -----  --------------------------------   ------------------------
C:   0000087C  A$lab-5$2994                       lab_5
C:   0000087D  A$lab-5$2995                       lab_5
C:   0000087E  A$lab-5$2996                       lab_5
C:   00000880  A$lab-5$2997                       lab_5
C:   00000882  A$lab-5$2998                       lab_5
C:   00000883  A$lab-5$2999                       lab_5
C:   00000884  A$lab-5$3000                       lab_5
C:   00000886  A$lab-5$3001                       lab_5
C:   00000888  A$lab-5$3002                       lab_5
C:   00000889  A$lab-5$3003                       lab_5
C:   0000088B  A$lab-5$3006                       lab_5
C:   0000088B  C$lab_5.c$198$5$153                lab_5
C:   0000088C  A$lab-5$3007                       lab_5
C:   0000088E  A$lab-5$3008                       lab_5
C:   00000890  A$lab-5$3009                       lab_5
C:   00000892  A$lab-5$3010                       lab_5
C:   00000894  A$lab-5$3011                       lab_5
C:   00000896  A$lab-5$3014                       lab_5
C:   00000896  C$lab_5.c$199$6$154                lab_5
C:   00000899  A$lab-5$3015                       lab_5
C:   0000089C  A$lab-5$3019                       lab_5
C:   0000089C  C$lab_5.c$201$5$153                lab_5
C:   0000089E  A$lab-5$3020                       lab_5
C:   0000089F  A$lab-5$3021                       lab_5
C:   000008A1  A$lab-5$3022                       lab_5
C:   000008A3  A$lab-5$3023                       lab_5
C:   000008A5  A$lab-5$3024                       lab_5
C:   000008A7  A$lab-5$3025                       lab_5
C:   000008A9  A$lab-5$3026                       lab_5
C:   000008AB  A$lab-5$3030                       lab_5
C:   000008AB  C$lab_5.c$206$4$155                lab_5
C:   000008AD  A$lab-5$3031                       lab_5
C:   000008B0  A$lab-5$3034                       lab_5
C:   000008B0  C$lab_5.c$207$4$155                lab_5
C:   000008B3  A$lab-5$3035                       lab_5
C:   000008B5  A$lab-5$3038                       lab_5
C:   000008B5  C$lab_5.c$208$4$155                lab_5
C:   000008B8  A$lab-5$3041                       lab_5
C:   000008B8  C$lab_5.c$209$4$155                lab_5
C:   000008BB  A$lab-5$3045                       lab_5
C:   000008BB  C$lab_5.c$213$2$133                lab_5
C:   000008BD  A$lab-5$3046                       lab_5
C:   000008BF  A$lab-5$3047                       lab_5
C:   000008C2  A$lab-5$3051                       lab_5
C:   000008C2  C$lab_5.c$215$3$156                lab_5
C:   000008C4  A$lab-5$3052                       lab_5
C:   000008C7  A$lab-5$3055                       lab_5
C:   000008C7  C$lab_5.c$216$3$156                lab_5
C:   000008C9  A$lab-5$3056                       lab_5
C:   000008CB  A$lab-5$3057                       lab_5
C:   000008CD  A$lab-5$3058                       lab_5
ASxxxx Linker V03.00 + NoICE + sdld,  page 55.
Hexadecimal  [32-Bits]

Area                                    Addr        Size        Decimal Bytes (Attributes)
--------------------------------        ----        ----        ------- ----- ------------
CSEG                                000000FA    00001878 =        6264. bytes (REL,CON,CODE)

      Value  Global                              Global Defined In Module
      -----  --------------------------------   ------------------------
C:   000008CF  A$lab-5$3059                       lab_5
C:   000008D1  A$lab-5$3060                       lab_5
C:   000008D3  A$lab-5$3061                       lab_5
C:   000008D5  A$lab-5$3062                       lab_5
C:   000008D7  A$lab-5$3063                       lab_5
C:   000008D9  A$lab-5$3064                       lab_5
C:   000008DB  A$lab-5$3065                       lab_5
C:   000008DD  A$lab-5$3066                       lab_5
C:   000008DF  A$lab-5$3067                       lab_5
C:   000008E1  A$lab-5$3068                       lab_5
C:   000008E3  A$lab-5$3069                       lab_5
C:   000008E6  A$lab-5$3070                       lab_5
C:   000008E8  A$lab-5$3071                       lab_5
C:   000008EA  A$lab-5$3072                       lab_5
C:   000008EC  A$lab-5$3075                       lab_5
C:   000008EC  C$lab_5.c$217$3$156                lab_5
C:   000008EE  A$lab-5$3076                       lab_5
C:   000008F0  A$lab-5$3077                       lab_5
C:   000008F2  A$lab-5$3078                       lab_5
C:   000008F4  A$lab-5$3079                       lab_5
C:   000008F6  A$lab-5$3080                       lab_5
C:   000008F8  A$lab-5$3081                       lab_5
C:   000008FA  A$lab-5$3082                       lab_5
C:   000008FC  A$lab-5$3083                       lab_5
C:   000008FE  A$lab-5$3084                       lab_5
C:   00000900  A$lab-5$3085                       lab_5
C:   00000902  A$lab-5$3086                       lab_5
C:   00000904  A$lab-5$3087                       lab_5
C:   00000906  A$lab-5$3088                       lab_5
C:   00000908  A$lab-5$3089                       lab_5
C:   0000090B  A$lab-5$3090                       lab_5
C:   0000090D  A$lab-5$3091                       lab_5
C:   0000090F  A$lab-5$3092                       lab_5
C:   00000911  A$lab-5$3093                       lab_5
C:   00000913  A$lab-5$3096                       lab_5
C:   00000913  C$lab_5.c$218$3$156                lab_5
C:   00000916  A$lab-5$3099                       lab_5
C:   00000916  C$lab_5.c$219$3$156                lab_5
C:   00000919  A$lab-5$3100                       lab_5
C:   0000091C  A$lab-5$3103                       lab_5
C:   0000091C  C$lab_5.c$223$1$132                lab_5
C:   0000091C  XG$main$0$0                        lab_5
C:   0000091D  A$lab-5$3114                       lab_5
C:   0000091D  C$lab_5.c$231$1$132                lab_5
C:   0000091D  G$PCA_ISR$0$0                      lab_5
C:   0000091D  _PCA_ISR                           lab_5
C:   0000091F  A$lab-5$3115                       lab_5
C:   00000921  A$lab-5$3120                       lab_5
C:   00000921  C$lab_5.c$233$1$158                lab_5
C:   00000921  C$lab_5.c$235$2$159                lab_5
C:   00000924  A$lab-5$3121                       lab_5
ASxxxx Linker V03.00 + NoICE + sdld,  page 56.
Hexadecimal  [32-Bits]

Area                                    Addr        Size        Decimal Bytes (Attributes)
--------------------------------        ----        ----        ------- ----- ------------
CSEG                                000000FA    00001878 =        6264. bytes (REL,CON,CODE)

      Value  Global                              Global Defined In Module
      -----  --------------------------------   ------------------------
C:   00000926  A$lab-5$3125                       lab_5
C:   00000926  C$lab_5.c$236$2$159                lab_5
C:   00000928  A$lab-5$3128                       lab_5
C:   00000928  C$lab_5.c$237$2$159                lab_5
C:   0000092A  A$lab-5$3129                       lab_5
C:   0000092B  A$lab-5$3130                       lab_5
C:   0000092E  A$lab-5$3131                       lab_5
C:   00000930  A$lab-5$3135                       lab_5
C:   00000930  C$lab_5.c$238$2$159                lab_5
C:   00000932  A$lab-5$3136                       lab_5
C:   00000934  A$lab-5$3137                       lab_5
C:   00000936  A$lab-5$3140                       lab_5
C:   00000936  C$lab_5.c$240$3$160                lab_5
C:   00000939  A$lab-5$3143                       lab_5
C:   00000939  C$lab_5.c$241$3$160                lab_5
C:   0000093C  A$lab-5$3147                       lab_5
C:   0000093C  C$lab_5.c$243$2$159                lab_5
C:   0000093E  A$lab-5$3150                       lab_5
C:   0000093E  C$lab_5.c$244$2$159                lab_5
C:   00000940  A$lab-5$3151                       lab_5
C:   00000942  A$lab-5$3152                       lab_5
C:   00000944  A$lab-5$3155                       lab_5
C:   00000944  C$lab_5.c$246$3$161                lab_5
C:   00000947  A$lab-5$3158                       lab_5
C:   00000947  C$lab_5.c$247$3$161                lab_5
C:   0000094A  A$lab-5$3162                       lab_5
C:   0000094A  C$lab_5.c$249$2$159                lab_5
C:   0000094D  A$lab-5$3163                       lab_5
C:   00000950  A$lab-5$3167                       lab_5
C:   00000950  C$lab_5.c$252$1$158                lab_5
C:   00000953  A$lab-5$3168                       lab_5
C:   00000955  A$lab-5$3169                       lab_5
C:   00000957  A$lab-5$3172                       lab_5
C:   00000957  C$lab_5.c$253$1$158                lab_5
C:   00000957  XG$PCA_ISR$0$0                     lab_5
C:   00000958  A$lab-5$3189                       lab_5
C:   00000958  C$lab_5.c$285$1$158                lab_5
C:   00000958  C$lab_5.c$287$1$163                lab_5
C:   00000958  G$pause$0$0                        lab_5
C:   00000958  _pause                             lab_5
C:   00000959  A$lab-5$3190                       lab_5
C:   0000095B  A$lab-5$3191                       lab_5
C:   0000095D  A$lab-5$3195                       lab_5
C:   0000095D  C$lab_5.c$288$1$163                lab_5
C:   0000095E  A$lab-5$3196                       lab_5
C:   00000960  A$lab-5$3197                       lab_5
C:   00000962  A$lab-5$3198                       lab_5
C:   00000964  A$lab-5$3199                       lab_5
C:   00000966  A$lab-5$3200                       lab_5
C:   00000968  A$lab-5$3203                       lab_5
C:   00000968  C$lab_5.c$289$1$163                lab_5
ASxxxx Linker V03.00 + NoICE + sdld,  page 57.
Hexadecimal  [32-Bits]

Area                                    Addr        Size        Decimal Bytes (Attributes)
--------------------------------        ----        ----        ------- ----- ------------
CSEG                                000000FA    00001878 =        6264. bytes (REL,CON,CODE)

      Value  Global                              Global Defined In Module
      -----  --------------------------------   ------------------------
C:   00000968  XG$pause$0$0                       lab_5
C:   00000969  A$lab-5$3216                       lab_5
C:   00000969  C$lab_5.c$292$1$163                lab_5
C:   00000969  C$lab_5.c$294$1$165                lab_5
C:   00000969  G$wait$0$0                         lab_5
C:   00000969  _wait                              lab_5
C:   0000096A  A$lab-5$3217                       lab_5
C:   0000096C  A$lab-5$3218                       lab_5
C:   0000096E  A$lab-5$3222                       lab_5
C:   0000096E  C$lab_5.c$295$1$165                lab_5
C:   0000096F  A$lab-5$3223                       lab_5
C:   00000971  A$lab-5$3224                       lab_5
C:   00000973  A$lab-5$3225                       lab_5
C:   00000975  A$lab-5$3226                       lab_5
C:   00000977  A$lab-5$3227                       lab_5
C:   00000979  A$lab-5$3230                       lab_5
C:   00000979  C$lab_5.c$296$1$165                lab_5
C:   00000979  XG$wait$0$0                        lab_5
C:   0000097A  A$lab-5$3245                       lab_5
C:   0000097A  C$lab_5.c$299$1$165                lab_5
C:   0000097A  G$read_AD_input$0$0                lab_5
C:   0000097A  _read_AD_input                     lab_5
C:   0000097D  A$lab-5$3248                       lab_5
C:   0000097D  C$lab_5.c$303$1$167                lab_5
C:   00000980  A$lab-5$3251                       lab_5
C:   00000980  C$lab_5.c$304$1$167                lab_5
C:   00000983  A$lab-5$3255                       lab_5
C:   00000983  C$lab_5.c$305$1$167                lab_5
C:   00000985  A$lab-5$3256                       lab_5
C:   00000988  A$lab-5$3259                       lab_5
C:   00000988  C$lab_5.c$306$1$167                lab_5
C:   0000098A  A$lab-5$3260                       lab_5
C:   0000098C  A$lab-5$3263                       lab_5
C:   0000098C  C$lab_5.c$307$2$168                lab_5
C:   0000098F  A$lab-5$3264                       lab_5
C:   00000991  A$lab-5$3268                       lab_5
C:   00000991  C$lab_5.c$310$2$169                lab_5
C:   00000994  A$lab-5$3269                       lab_5
C:   00000997  A$lab-5$3270                       lab_5
C:   0000099A  A$lab-5$3271                       lab_5
C:   0000099D  A$lab-5$3272                       lab_5
C:   0000099F  A$lab-5$3273                       lab_5
C:   000009A1  A$lab-5$3274                       lab_5
C:   000009A2  A$lab-5$3275                       lab_5
C:   000009A3  A$lab-5$3278                       lab_5
C:   000009A3  C$lab_5.c$311$2$169                lab_5
C:   000009A5  A$lab-5$3279                       lab_5
C:   000009A7  A$lab-5$3280                       lab_5
C:   000009A8  A$lab-5$3281                       lab_5
C:   000009AA  A$lab-5$3285                       lab_5
C:   000009AA  C$lab_5.c$313$1$167                lab_5
ASxxxx Linker V03.00 + NoICE + sdld,  page 58.
Hexadecimal  [32-Bits]

Area                                    Addr        Size        Decimal Bytes (Attributes)
--------------------------------        ----        ----        ------- ----- ------------
CSEG                                000000FA    00001878 =        6264. bytes (REL,CON,CODE)

      Value  Global                              Global Defined In Module
      -----  --------------------------------   ------------------------
C:   000009AA  XG$read_AD_input$0$0               lab_5
C:   000009AB  A$lab-5$3298                       lab_5
C:   000009AB  C$lab_5.c$315$1$167                lab_5
C:   000009AB  C$lab_5.c$317$1$171                lab_5
C:   000009AB  G$PCA_Init$0$0                     lab_5
C:   000009AB  _PCA_Init                          lab_5
C:   000009AE  A$lab-5$3301                       lab_5
C:   000009AE  C$lab_5.c$318$1$171                lab_5
C:   000009B1  A$lab-5$3302                       lab_5
C:   000009B4  A$lab-5$3303                       lab_5
C:   000009B7  A$lab-5$3306                       lab_5
C:   000009B7  C$lab_5.c$319$1$171                lab_5
C:   000009BA  A$lab-5$3309                       lab_5
C:   000009BA  C$lab_5.c$320$1$171                lab_5
C:   000009BD  A$lab-5$3312                       lab_5
C:   000009BD  C$lab_5.c$321$1$171                lab_5
C:   000009BF  A$lab-5$3315                       lab_5
C:   000009BF  C$lab_5.c$322$1$171                lab_5
C:   000009BF  XG$PCA_Init$0$0                    lab_5
C:   000009C0  A$lab-5$3328                       lab_5
C:   000009C0  C$lab_5.c$325$1$171                lab_5
C:   000009C0  C$lab_5.c$327$1$173                lab_5
C:   000009C0  G$ADC_Init$0$0                     lab_5
C:   000009C0  _ADC_Init                          lab_5
C:   000009C3  A$lab-5$3331                       lab_5
C:   000009C3  C$lab_5.c$328$1$173                lab_5
C:   000009C6  A$lab-5$3334                       lab_5
C:   000009C6  C$lab_5.c$329$1$173                lab_5
C:   000009C9  A$lab-5$3337                       lab_5
C:   000009C9  C$lab_5.c$330$1$173                lab_5
C:   000009C9  XG$ADC_Init$0$0                    lab_5
C:   000009CA  A$lab-5$3350                       lab_5
C:   000009CA  C$lab_5.c$333$1$173                lab_5
C:   000009CA  C$lab_5.c$335$1$175                lab_5
C:   000009CA  G$SMB_Init$0$0                     lab_5
C:   000009CA  _SMB_Init                          lab_5
C:   000009CD  A$lab-5$3353                       lab_5
C:   000009CD  C$lab_5.c$336$1$175                lab_5
C:   000009CF  A$lab-5$3356                       lab_5
C:   000009CF  C$lab_5.c$337$1$175                lab_5
C:   000009CF  XG$SMB_Init$0$0                    lab_5
C:   000009D0  A$lab-5$3369                       lab_5
C:   000009D0  C$lab_5.c$340$1$175                lab_5
C:   000009D0  C$lab_5.c$342$1$177                lab_5
C:   000009D0  G$Port_Init$0$0                    lab_5
C:   000009D0  _Port_Init                         lab_5
C:   000009D3  A$lab-5$3372                       lab_5
C:   000009D3  C$lab_5.c$343$1$177                lab_5
C:   000009D6  A$lab-5$3375                       lab_5
C:   000009D6  C$lab_5.c$344$1$177                lab_5
C:   000009D9  A$lab-5$3378                       lab_5
ASxxxx Linker V03.00 + NoICE + sdld,  page 59.
Hexadecimal  [32-Bits]

Area                                    Addr        Size        Decimal Bytes (Attributes)
--------------------------------        ----        ----        ------- ----- ------------
CSEG                                000000FA    00001878 =        6264. bytes (REL,CON,CODE)

      Value  Global                              Global Defined In Module
      -----  --------------------------------   ------------------------
C:   000009D9  C$lab_5.c$345$1$177                lab_5
C:   000009DC  A$lab-5$3381                       lab_5
C:   000009DC  C$lab_5.c$347$1$177                lab_5
C:   000009DE  A$lab-5$3382                       lab_5
C:   000009E1  A$lab-5$3385                       lab_5
C:   000009E1  C$lab_5.c$349$1$177                lab_5
C:   000009E4  A$lab-5$3388                       lab_5
C:   000009E4  C$lab_5.c$350$1$177                lab_5
C:   000009E7  A$lab-5$3391                       lab_5
C:   000009E7  C$lab_5.c$351$1$177                lab_5
C:   000009E7  XG$Port_Init$0$0                   lab_5
C:   000009E8  A$lab-5$3404                       lab_5
C:   000009E8  C$lab_5.c$354$1$177                lab_5
C:   000009E8  C$lab_5.c$356$1$179                lab_5
C:   000009E8  G$XBR0_Init$0$0                    lab_5
C:   000009E8  _XBR0_Init                         lab_5
C:   000009EB  A$lab-5$3407                       lab_5
C:   000009EB  C$lab_5.c$358$1$179                lab_5
C:   000009EB  XG$XBR0_Init$0$0                   lab_5
C:   000009EC  A$lab-5$3423                       lab_5
C:   000009EC  C$lab_5.c$360$1$179                lab_5
C:   000009EC  C$lab_5.c$361$1$179                lab_5
C:   000009EC  G$calibration$0$0                  lab_5
C:   000009EC  _calibration                       lab_5
C:   000009EE  A$lab-5$3426                       lab_5
C:   000009EE  C$lab_5.c$364$1$181                lab_5
C:   000009EF  A$lab-5$3427                       lab_5
C:   000009F1  A$lab-5$3428                       lab_5
C:   000009F3  A$lab-5$3431                       lab_5
C:   000009F3  C$lab_5.c$365$1$181                lab_5
C:   000009F5  A$lab-5$3432                       lab_5
C:   000009F7  A$lab-5$3435                       lab_5
C:   000009F9  A$lab-5$3439                       lab_5
C:   000009F9  C$lab_5.c$369$2$182                lab_5
C:   000009FC  A$lab-5$3440                       lab_5
C:   000009FF  A$lab-5$3441                       lab_5
C:   00000A02  A$lab-5$3442                       lab_5
C:   00000A05  A$lab-5$3443                       lab_5
C:   00000A08  A$lab-5$3444                       lab_5
C:   00000A0A  A$lab-5$3445                       lab_5
C:   00000A0C  A$lab-5$3446                       lab_5
C:   00000A0E  A$lab-5$3447                       lab_5
C:   00000A11  A$lab-5$3448                       lab_5
C:   00000A13  A$lab-5$3449                       lab_5
C:   00000A15  A$lab-5$3453                       lab_5
C:   00000A15  C$lab_5.c$371$2$182                lab_5
C:   00000A17  A$lab-5$3454                       lab_5
C:   00000A19  A$lab-5$3455                       lab_5
C:   00000A1A  A$lab-5$3456                       lab_5
C:   00000A1D  A$lab-5$3457                       lab_5
C:   00000A1F  A$lab-5$3461                       lab_5
ASxxxx Linker V03.00 + NoICE + sdld,  page 60.
Hexadecimal  [32-Bits]

Area                                    Addr        Size        Decimal Bytes (Attributes)
--------------------------------        ----        ----        ------- ----- ------------
CSEG                                000000FA    00001878 =        6264. bytes (REL,CON,CODE)

      Value  Global                              Global Defined In Module
      -----  --------------------------------   ------------------------
C:   00000A1F  C$lab_5.c$372$3$183                lab_5
C:   00000A22  A$lab-5$3462                       lab_5
C:   00000A25  A$lab-5$3463                       lab_5
C:   00000A28  A$lab-5$3464                       lab_5
C:   00000A2B  A$lab-5$3465                       lab_5
C:   00000A2E  A$lab-5$3466                       lab_5
C:   00000A30  A$lab-5$3467                       lab_5
C:   00000A32  A$lab-5$3468                       lab_5
C:   00000A34  A$lab-5$3469                       lab_5
C:   00000A37  A$lab-5$3470                       lab_5
C:   00000A39  A$lab-5$3471                       lab_5
C:   00000A3B  A$lab-5$3472                       lab_5
C:   00000A3D  A$lab-5$3476                       lab_5
C:   00000A3D  C$lab_5.c$376$2$182                lab_5
C:   00000A40  A$lab-5$3477                       lab_5
C:   00000A43  A$lab-5$3478                       lab_5
C:   00000A46  A$lab-5$3479                       lab_5
C:   00000A49  A$lab-5$3480                       lab_5
C:   00000A4C  A$lab-5$3481                       lab_5
C:   00000A4E  A$lab-5$3482                       lab_5
C:   00000A50  A$lab-5$3483                       lab_5
C:   00000A52  A$lab-5$3484                       lab_5
C:   00000A55  A$lab-5$3485                       lab_5
C:   00000A57  A$lab-5$3486                       lab_5
C:   00000A59  A$lab-5$3489                       lab_5
C:   00000A59  C$lab_5.c$378$2$182                lab_5
C:   00000A5B  A$lab-5$3490                       lab_5
C:   00000A5D  A$lab-5$3491                       lab_5
C:   00000A5F  A$lab-5$3492                       lab_5
C:   00000A61  A$lab-5$3493                       lab_5
C:   00000A62  A$lab-5$3494                       lab_5
C:   00000A64  A$lab-5$3495                       lab_5
C:   00000A65  A$lab-5$3496                       lab_5
C:   00000A67  A$lab-5$3497                       lab_5
C:   00000A68  A$lab-5$3498                       lab_5
C:   00000A69  A$lab-5$3499                       lab_5
C:   00000A6A  A$lab-5$3500                       lab_5
C:   00000A6B  A$lab-5$3501                       lab_5
C:   00000A6D  A$lab-5$3502                       lab_5
C:   00000A6E  A$lab-5$3503                       lab_5
C:   00000A6F  A$lab-5$3504                       lab_5
C:   00000A71  A$lab-5$3505                       lab_5
C:   00000A72  A$lab-5$3506                       lab_5
C:   00000A73  A$lab-5$3507                       lab_5
C:   00000A74  A$lab-5$3508                       lab_5
C:   00000A77  A$lab-5$3509                       lab_5
C:   00000A79  A$lab-5$3511                       lab_5
C:   00000A7A  A$lab-5$3512                       lab_5
C:   00000A7B  A$lab-5$3513                       lab_5
C:   00000A7D  A$lab-5$3514                       lab_5
C:   00000A7F  A$lab-5$3515                       lab_5
ASxxxx Linker V03.00 + NoICE + sdld,  page 61.
Hexadecimal  [32-Bits]

Area                                    Addr        Size        Decimal Bytes (Attributes)
--------------------------------        ----        ----        ------- ----- ------------
CSEG                                000000FA    00001878 =        6264. bytes (REL,CON,CODE)

      Value  Global                              Global Defined In Module
      -----  --------------------------------   ------------------------
C:   00000A80  A$lab-5$3516                       lab_5
C:   00000A82  A$lab-5$3517                       lab_5
C:   00000A84  A$lab-5$3520                       lab_5
C:   00000A84  C$lab_5.c$379$2$182                lab_5
C:   00000A86  A$lab-5$3521                       lab_5
C:   00000A88  A$lab-5$3522                       lab_5
C:   00000A8A  A$lab-5$3523                       lab_5
C:   00000A8C  A$lab-5$3524                       lab_5
C:   00000A8D  A$lab-5$3525                       lab_5
C:   00000A8F  A$lab-5$3526                       lab_5
C:   00000A90  A$lab-5$3527                       lab_5
C:   00000A92  A$lab-5$3528                       lab_5
C:   00000A93  A$lab-5$3529                       lab_5
C:   00000A94  A$lab-5$3530                       lab_5
C:   00000A95  A$lab-5$3531                       lab_5
C:   00000A96  A$lab-5$3532                       lab_5
C:   00000A98  A$lab-5$3533                       lab_5
C:   00000A99  A$lab-5$3534                       lab_5
C:   00000A9A  A$lab-5$3535                       lab_5
C:   00000A9C  A$lab-5$3536                       lab_5
C:   00000A9D  A$lab-5$3537                       lab_5
C:   00000A9E  A$lab-5$3538                       lab_5
C:   00000A9F  A$lab-5$3539                       lab_5
C:   00000AA2  A$lab-5$3540                       lab_5
C:   00000AA4  A$lab-5$3542                       lab_5
C:   00000AA5  A$lab-5$3543                       lab_5
C:   00000AA6  A$lab-5$3544                       lab_5
C:   00000AA8  A$lab-5$3545                       lab_5
C:   00000AAA  A$lab-5$3546                       lab_5
C:   00000AAB  A$lab-5$3547                       lab_5
C:   00000AAD  A$lab-5$3548                       lab_5
C:   00000AAF  A$lab-5$3551                       lab_5
C:   00000AAF  C$lab_5.c$367$1$181                lab_5
C:   00000AB0  A$lab-5$3552                       lab_5
C:   00000AB3  A$lab-5$3554                       lab_5
C:   00000AB5  A$lab-5$3555                       lab_5
C:   00000AB8  A$lab-5$3559                       lab_5
C:   00000AB8  C$lab_5.c$382$1$181                lab_5
C:   00000ABB  A$lab-5$3560                       lab_5
C:   00000ABE  A$lab-5$3561                       lab_5
C:   00000AC1  A$lab-5$3562                       lab_5
C:   00000AC4  A$lab-5$3563                       lab_5
C:   00000AC7  A$lab-5$3564                       lab_5
C:   00000ACA  A$lab-5$3565                       lab_5
C:   00000ACD  A$lab-5$3568                       lab_5
C:   00000ACD  C$lab_5.c$383$1$181                lab_5
C:   00000AD0  A$lab-5$3569                       lab_5
C:   00000AD3  A$lab-5$3570                       lab_5
C:   00000AD6  A$lab-5$3571                       lab_5
C:   00000AD9  A$lab-5$3572                       lab_5
C:   00000ADC  A$lab-5$3573                       lab_5
ASxxxx Linker V03.00 + NoICE + sdld,  page 62.
Hexadecimal  [32-Bits]

Area                                    Addr        Size        Decimal Bytes (Attributes)
--------------------------------        ----        ----        ------- ----- ------------
CSEG                                000000FA    00001878 =        6264. bytes (REL,CON,CODE)

      Value  Global                              Global Defined In Module
      -----  --------------------------------   ------------------------
C:   00000ADF  A$lab-5$3574                       lab_5
C:   00000AE2  A$lab-5$3577                       lab_5
C:   00000AE2  C$lab_5.c$385$1$181                lab_5
C:   00000AE2  XG$calibration$0$0                 lab_5
C:   00000AE3  A$lab-5$3593                       lab_5
C:   00000AE3  C$lab_5.c$387$1$181                lab_5
C:   00000AE3  C$lab_5.c$389$1$181                lab_5
C:   00000AE3  G$read_accels$0$0                  lab_5
C:   00000AE3  _read_accels                       lab_5
C:   00000AE5  A$lab-5$3596                       lab_5
C:   00000AE5  C$lab_5.c$392$1$185                lab_5
C:   00000AE6  A$lab-5$3597                       lab_5
C:   00000AE8  A$lab-5$3598                       lab_5
C:   00000AEA  A$lab-5$3601                       lab_5
C:   00000AEA  C$lab_5.c$393$1$185                lab_5
C:   00000AEC  A$lab-5$3602                       lab_5
C:   00000AEE  A$lab-5$3605                       lab_5
C:   00000AF0  A$lab-5$3609                       lab_5
C:   00000AF0  C$lab_5.c$397$2$186                lab_5
C:   00000AF3  A$lab-5$3610                       lab_5
C:   00000AF6  A$lab-5$3611                       lab_5
C:   00000AF9  A$lab-5$3612                       lab_5
C:   00000AFC  A$lab-5$3613                       lab_5
C:   00000AFF  A$lab-5$3614                       lab_5
C:   00000B01  A$lab-5$3615                       lab_5
C:   00000B03  A$lab-5$3616                       lab_5
C:   00000B05  A$lab-5$3617                       lab_5
C:   00000B08  A$lab-5$3618                       lab_5
C:   00000B0A  A$lab-5$3619                       lab_5
C:   00000B0C  A$lab-5$3623                       lab_5
C:   00000B0C  C$lab_5.c$399$2$186                lab_5
C:   00000B0E  A$lab-5$3624                       lab_5
C:   00000B10  A$lab-5$3625                       lab_5
C:   00000B11  A$lab-5$3626                       lab_5
C:   00000B14  A$lab-5$3627                       lab_5
C:   00000B16  A$lab-5$3631                       lab_5
C:   00000B16  C$lab_5.c$400$3$187                lab_5
C:   00000B19  A$lab-5$3632                       lab_5
C:   00000B1C  A$lab-5$3633                       lab_5
C:   00000B1F  A$lab-5$3634                       lab_5
C:   00000B22  A$lab-5$3635                       lab_5
C:   00000B25  A$lab-5$3636                       lab_5
C:   00000B27  A$lab-5$3637                       lab_5
C:   00000B29  A$lab-5$3638                       lab_5
C:   00000B2B  A$lab-5$3639                       lab_5
C:   00000B2E  A$lab-5$3640                       lab_5
C:   00000B30  A$lab-5$3641                       lab_5
C:   00000B32  A$lab-5$3642                       lab_5
C:   00000B34  A$lab-5$3646                       lab_5
C:   00000B34  C$lab_5.c$404$2$186                lab_5
C:   00000B37  A$lab-5$3647                       lab_5
ASxxxx Linker V03.00 + NoICE + sdld,  page 63.
Hexadecimal  [32-Bits]

Area                                    Addr        Size        Decimal Bytes (Attributes)
--------------------------------        ----        ----        ------- ----- ------------
CSEG                                000000FA    00001878 =        6264. bytes (REL,CON,CODE)

      Value  Global                              Global Defined In Module
      -----  --------------------------------   ------------------------
C:   00000B3A  A$lab-5$3648                       lab_5
C:   00000B3D  A$lab-5$3649                       lab_5
C:   00000B40  A$lab-5$3650                       lab_5
C:   00000B43  A$lab-5$3651                       lab_5
C:   00000B45  A$lab-5$3652                       lab_5
C:   00000B47  A$lab-5$3653                       lab_5
C:   00000B49  A$lab-5$3654                       lab_5
C:   00000B4C  A$lab-5$3655                       lab_5
C:   00000B4E  A$lab-5$3656                       lab_5
C:   00000B50  A$lab-5$3659                       lab_5
C:   00000B50  C$lab_5.c$406$2$186                lab_5
C:   00000B52  A$lab-5$3660                       lab_5
C:   00000B54  A$lab-5$3661                       lab_5
C:   00000B56  A$lab-5$3662                       lab_5
C:   00000B58  A$lab-5$3663                       lab_5
C:   00000B59  A$lab-5$3664                       lab_5
C:   00000B5B  A$lab-5$3665                       lab_5
C:   00000B5C  A$lab-5$3666                       lab_5
C:   00000B5E  A$lab-5$3667                       lab_5
C:   00000B5F  A$lab-5$3668                       lab_5
C:   00000B60  A$lab-5$3669                       lab_5
C:   00000B61  A$lab-5$3670                       lab_5
C:   00000B62  A$lab-5$3671                       lab_5
C:   00000B64  A$lab-5$3672                       lab_5
C:   00000B65  A$lab-5$3673                       lab_5
C:   00000B66  A$lab-5$3674                       lab_5
C:   00000B68  A$lab-5$3675                       lab_5
C:   00000B69  A$lab-5$3676                       lab_5
C:   00000B6A  A$lab-5$3677                       lab_5
C:   00000B6B  A$lab-5$3678                       lab_5
C:   00000B6E  A$lab-5$3679                       lab_5
C:   00000B70  A$lab-5$3681                       lab_5
C:   00000B71  A$lab-5$3682                       lab_5
C:   00000B72  A$lab-5$3683                       lab_5
C:   00000B74  A$lab-5$3684                       lab_5
C:   00000B76  A$lab-5$3685                       lab_5
C:   00000B77  A$lab-5$3686                       lab_5
C:   00000B79  A$lab-5$3687                       lab_5
C:   00000B7B  A$lab-5$3690                       lab_5
C:   00000B7B  C$lab_5.c$407$2$186                lab_5
C:   00000B7D  A$lab-5$3691                       lab_5
C:   00000B7F  A$lab-5$3692                       lab_5
C:   00000B81  A$lab-5$3693                       lab_5
C:   00000B83  A$lab-5$3694                       lab_5
C:   00000B84  A$lab-5$3695                       lab_5
C:   00000B86  A$lab-5$3696                       lab_5
C:   00000B87  A$lab-5$3697                       lab_5
C:   00000B89  A$lab-5$3698                       lab_5
C:   00000B8A  A$lab-5$3699                       lab_5
C:   00000B8B  A$lab-5$3700                       lab_5
C:   00000B8C  A$lab-5$3701                       lab_5
ASxxxx Linker V03.00 + NoICE + sdld,  page 64.
Hexadecimal  [32-Bits]

Area                                    Addr        Size        Decimal Bytes (Attributes)
--------------------------------        ----        ----        ------- ----- ------------
CSEG                                000000FA    00001878 =        6264. bytes (REL,CON,CODE)

      Value  Global                              Global Defined In Module
      -----  --------------------------------   ------------------------
C:   00000B8D  A$lab-5$3702                       lab_5
C:   00000B8F  A$lab-5$3703                       lab_5
C:   00000B90  A$lab-5$3704                       lab_5
C:   00000B91  A$lab-5$3705                       lab_5
C:   00000B93  A$lab-5$3706                       lab_5
C:   00000B94  A$lab-5$3707                       lab_5
C:   00000B95  A$lab-5$3708                       lab_5
C:   00000B96  A$lab-5$3709                       lab_5
C:   00000B99  A$lab-5$3710                       lab_5
C:   00000B9B  A$lab-5$3712                       lab_5
C:   00000B9C  A$lab-5$3713                       lab_5
C:   00000B9D  A$lab-5$3714                       lab_5
C:   00000B9F  A$lab-5$3715                       lab_5
C:   00000BA1  A$lab-5$3716                       lab_5
C:   00000BA2  A$lab-5$3717                       lab_5
C:   00000BA4  A$lab-5$3718                       lab_5
C:   00000BA6  A$lab-5$3721                       lab_5
C:   00000BA6  C$lab_5.c$395$1$185                lab_5
C:   00000BA7  A$lab-5$3722                       lab_5
C:   00000BAA  A$lab-5$3724                       lab_5
C:   00000BAC  A$lab-5$3725                       lab_5
C:   00000BAF  A$lab-5$3729                       lab_5
C:   00000BAF  C$lab_5.c$410$1$185                lab_5
C:   00000BB1  A$lab-5$3730                       lab_5
C:   00000BB2  A$lab-5$3731                       lab_5
C:   00000BB3  A$lab-5$3732                       lab_5
C:   00000BB5  A$lab-5$3733                       lab_5
C:   00000BB6  A$lab-5$3734                       lab_5
C:   00000BB7  A$lab-5$3735                       lab_5
C:   00000BB9  A$lab-5$3736                       lab_5
C:   00000BBB  A$lab-5$3737                       lab_5
C:   00000BBD  A$lab-5$3738                       lab_5
C:   00000BBF  A$lab-5$3739                       lab_5
C:   00000BC1  A$lab-5$3740                       lab_5
C:   00000BC3  A$lab-5$3741                       lab_5
C:   00000BC5  A$lab-5$3742                       lab_5
C:   00000BC8  A$lab-5$3743                       lab_5
C:   00000BCA  A$lab-5$3745                       lab_5
C:   00000BCC  A$lab-5$3748                       lab_5
C:   00000BCC  C$lab_5.c$411$1$185                lab_5
C:   00000BCE  A$lab-5$3749                       lab_5
C:   00000BCF  A$lab-5$3750                       lab_5
C:   00000BD0  A$lab-5$3751                       lab_5
C:   00000BD2  A$lab-5$3752                       lab_5
C:   00000BD3  A$lab-5$3753                       lab_5
C:   00000BD4  A$lab-5$3754                       lab_5
C:   00000BD6  A$lab-5$3755                       lab_5
C:   00000BD8  A$lab-5$3756                       lab_5
C:   00000BDA  A$lab-5$3757                       lab_5
C:   00000BDC  A$lab-5$3758                       lab_5
C:   00000BDE  A$lab-5$3759                       lab_5
ASxxxx Linker V03.00 + NoICE + sdld,  page 65.
Hexadecimal  [32-Bits]

Area                                    Addr        Size        Decimal Bytes (Attributes)
--------------------------------        ----        ----        ------- ----- ------------
CSEG                                000000FA    00001878 =        6264. bytes (REL,CON,CODE)

      Value  Global                              Global Defined In Module
      -----  --------------------------------   ------------------------
C:   00000BE0  A$lab-5$3760                       lab_5
C:   00000BE2  A$lab-5$3761                       lab_5
C:   00000BE5  A$lab-5$3762                       lab_5
C:   00000BE7  A$lab-5$3764                       lab_5
C:   00000BE9  A$lab-5$3767                       lab_5
C:   00000BE9  C$lab_5.c$413$1$185                lab_5
C:   00000BEB  A$lab-5$3768                       lab_5
C:   00000BEC  A$lab-5$3769                       lab_5
C:   00000BEE  A$lab-5$3770                       lab_5
C:   00000BF0  A$lab-5$3771                       lab_5
C:   00000BF2  A$lab-5$3772                       lab_5
C:   00000BF4  A$lab-5$3773                       lab_5
C:   00000BF6  A$lab-5$3776                       lab_5
C:   00000BF6  C$lab_5.c$414$1$185                lab_5
C:   00000BF8  A$lab-5$3777                       lab_5
C:   00000BF9  A$lab-5$3778                       lab_5
C:   00000BFB  A$lab-5$3779                       lab_5
C:   00000BFD  A$lab-5$3780                       lab_5
C:   00000BFF  A$lab-5$3781                       lab_5
C:   00000C01  A$lab-5$3782                       lab_5
C:   00000C03  A$lab-5$3785                       lab_5
C:   00000C03  C$lab_5.c$416$1$185                lab_5
C:   00000C03  XG$read_accels$0$0                 lab_5
C:   00000C04  A$lab-5$3798                       lab_5
C:   00000C04  C$lab_5.c$419$1$185                lab_5
C:   00000C04  C$lab_5.c$421$1$189                lab_5
C:   00000C04  G$set_servo_PWM$0$0                lab_5
C:   00000C04  _set_servo_PWM                     lab_5
C:   00000C06  A$lab-5$3799                       lab_5
C:   00000C08  A$lab-5$3800                       lab_5
C:   00000C0B  A$lab-5$3801                       lab_5
C:   00000C0E  A$lab-5$3802                       lab_5
C:   00000C10  A$lab-5$3803                       lab_5
C:   00000C12  A$lab-5$3804                       lab_5
C:   00000C15  A$lab-5$3805                       lab_5
C:   00000C17  A$lab-5$3806                       lab_5
C:   00000C19  A$lab-5$3807                       lab_5
C:   00000C1A  A$lab-5$3808                       lab_5
C:   00000C1C  A$lab-5$3809                       lab_5
C:   00000C1E  A$lab-5$3810                       lab_5
C:   00000C1F  A$lab-5$3811                       lab_5
C:   00000C21  A$lab-5$3812                       lab_5
C:   00000C23  A$lab-5$3815                       lab_5
C:   00000C23  C$lab_5.c$423$1$189                lab_5
C:   00000C24  A$lab-5$3816                       lab_5
C:   00000C26  A$lab-5$3817                       lab_5
C:   00000C28  A$lab-5$3818                       lab_5
C:   00000C2A  A$lab-5$3819                       lab_5
C:   00000C2C  A$lab-5$3820                       lab_5
C:   00000C2E  A$lab-5$3823                       lab_5
C:   00000C2E  C$lab_5.c$424$2$190                lab_5
ASxxxx Linker V03.00 + NoICE + sdld,  page 66.
Hexadecimal  [32-Bits]

Area                                    Addr        Size        Decimal Bytes (Attributes)
--------------------------------        ----        ----        ------- ----- ------------
CSEG                                000000FA    00001878 =        6264. bytes (REL,CON,CODE)

      Value  Global                              Global Defined In Module
      -----  --------------------------------   ------------------------
C:   00000C31  A$lab-5$3824                       lab_5
C:   00000C34  A$lab-5$3828                       lab_5
C:   00000C34  C$lab_5.c$427$1$189                lab_5
C:   00000C35  A$lab-5$3829                       lab_5
C:   00000C37  A$lab-5$3830                       lab_5
C:   00000C39  A$lab-5$3831                       lab_5
C:   00000C3B  A$lab-5$3832                       lab_5
C:   00000C3D  A$lab-5$3833                       lab_5
C:   00000C3F  A$lab-5$3836                       lab_5
C:   00000C3F  C$lab_5.c$428$2$191                lab_5
C:   00000C42  A$lab-5$3837                       lab_5
C:   00000C45  A$lab-5$3841                       lab_5
C:   00000C45  C$lab_5.c$431$1$189                lab_5
C:   00000C47  A$lab-5$3842                       lab_5
C:   00000C48  A$lab-5$3843                       lab_5
C:   00000C4A  A$lab-5$3844                       lab_5
C:   00000C4C  A$lab-5$3845                       lab_5
C:   00000C4E  A$lab-5$3846                       lab_5
C:   00000C50  A$lab-5$3847                       lab_5
C:   00000C52  A$lab-5$3850                       lab_5
C:   00000C52  C$lab_5.c$432$1$189                lab_5
C:   00000C52  XG$set_servo_PWM$0$0               lab_5
C:   00000C53  A$lab-5$3863                       lab_5
C:   00000C53  C$lab_5.c$435$1$189                lab_5
C:   00000C53  C$lab_5.c$437$1$193                lab_5
C:   00000C53  G$set_drive_PWM$0$0                lab_5
C:   00000C53  _set_drive_PWM                     lab_5
C:   00000C56  A$lab-5$3864                       lab_5
C:   00000C59  A$lab-5$3865                       lab_5
C:   00000C5C  A$lab-5$3866                       lab_5
C:   00000C5F  A$lab-5$3869                       lab_5
C:   00000C5F  C$lab_5.c$438$1$193                lab_5
C:   00000C62  A$lab-5$3870                       lab_5
C:   00000C65  A$lab-5$3873                       lab_5
C:   00000C65  C$lab_5.c$439$1$193                lab_5
C:   00000C68  A$lab-5$3874                       lab_5
C:   00000C6B  A$lab-5$3875                       lab_5
C:   00000C6E  A$lab-5$3876                       lab_5
C:   00000C71  A$lab-5$3877                       lab_5
C:   00000C74  A$lab-5$3878                       lab_5
C:   00000C76  A$lab-5$3879                       lab_5
C:   00000C78  A$lab-5$3880                       lab_5
C:   00000C7A  A$lab-5$3881                       lab_5
C:   00000C7C  A$lab-5$3882                       lab_5
C:   00000C7F  A$lab-5$3883                       lab_5
C:   00000C81  A$lab-5$3884                       lab_5
C:   00000C83  A$lab-5$3885                       lab_5
C:   00000C84  A$lab-5$3886                       lab_5
C:   00000C86  A$lab-5$3887                       lab_5
C:   00000C88  A$lab-5$3888                       lab_5
C:   00000C89  A$lab-5$3889                       lab_5
ASxxxx Linker V03.00 + NoICE + sdld,  page 67.
Hexadecimal  [32-Bits]

Area                                    Addr        Size        Decimal Bytes (Attributes)
--------------------------------        ----        ----        ------- ----- ------------
CSEG                                000000FA    00001878 =        6264. bytes (REL,CON,CODE)

      Value  Global                              Global Defined In Module
      -----  --------------------------------   ------------------------
C:   00000C8B  A$lab-5$3890                       lab_5
C:   00000C8D  A$lab-5$3893                       lab_5
C:   00000C8D  C$lab_5.c$442$1$193                lab_5
C:   00000C8E  A$lab-5$3894                       lab_5
C:   00000C90  A$lab-5$3895                       lab_5
C:   00000C92  A$lab-5$3896                       lab_5
C:   00000C94  A$lab-5$3897                       lab_5
C:   00000C96  A$lab-5$3898                       lab_5
C:   00000C98  A$lab-5$3901                       lab_5
C:   00000C98  C$lab_5.c$443$2$194                lab_5
C:   00000C9B  A$lab-5$3902                       lab_5
C:   00000C9E  A$lab-5$3906                       lab_5
C:   00000C9E  C$lab_5.c$446$1$193                lab_5
C:   00000C9F  A$lab-5$3907                       lab_5
C:   00000CA1  A$lab-5$3908                       lab_5
C:   00000CA3  A$lab-5$3909                       lab_5
C:   00000CA5  A$lab-5$3910                       lab_5
C:   00000CA7  A$lab-5$3911                       lab_5
C:   00000CA9  A$lab-5$3914                       lab_5
C:   00000CA9  C$lab_5.c$447$2$195                lab_5
C:   00000CAC  A$lab-5$3915                       lab_5
C:   00000CAF  A$lab-5$3919                       lab_5
C:   00000CAF  C$lab_5.c$450$1$193                lab_5
C:   00000CB1  A$lab-5$3920                       lab_5
C:   00000CB2  A$lab-5$3921                       lab_5
C:   00000CB4  A$lab-5$3922                       lab_5
C:   00000CB6  A$lab-5$3923                       lab_5
C:   00000CB8  A$lab-5$3924                       lab_5
C:   00000CBA  A$lab-5$3925                       lab_5
C:   00000CBC  A$lab-5$3928                       lab_5
C:   00000CBC  C$lab_5.c$452$1$193                lab_5
C:   00000CBC  XG$set_drive_PWM$0$0               lab_5
C:   00000CBD  A$lab-5$3945                       lab_5
C:   00000CBD  C$lab_5.c$455$1$193                lab_5
C:   00000CBD  C$lab_5.c$457$1$197                lab_5
C:   00000CBD  G$set_gains$0$0                    lab_5
C:   00000CBD  _set_gains                         lab_5
C:   00000CC0  A$lab-5$3948                       lab_5
C:   00000CC0  C$lab_5.c$458$1$197                lab_5
C:   00000CC2  A$lab-5$3949                       lab_5
C:   00000CC4  A$lab-5$3950                       lab_5
C:   00000CC6  A$lab-5$3951                       lab_5
C:   00000CC8  A$lab-5$3952                       lab_5
C:   00000CCA  A$lab-5$3953                       lab_5
C:   00000CCC  A$lab-5$3954                       lab_5
C:   00000CCF  A$lab-5$3955                       lab_5
C:   00000CD1  A$lab-5$3956                       lab_5
C:   00000CD3  A$lab-5$3957                       lab_5
C:   00000CD5  A$lab-5$3963                       lab_5
C:   00000CD5  C$lab_5.c$459$1$197                lab_5
C:   00000CD5  C$lab_5.c$460$2$198                lab_5
ASxxxx Linker V03.00 + NoICE + sdld,  page 68.
Hexadecimal  [32-Bits]

Area                                    Addr        Size        Decimal Bytes (Attributes)
--------------------------------        ----        ----        ------- ----- ------------
CSEG                                000000FA    00001878 =        6264. bytes (REL,CON,CODE)

      Value  Global                              Global Defined In Module
      -----  --------------------------------   ------------------------
C:   00000CD8  A$lab-5$3964                       lab_5
C:   00000CDA  A$lab-5$3967                       lab_5
C:   00000CDA  C$lab_5.c$461$2$198                lab_5
C:   00000CDC  A$lab-5$3968                       lab_5
C:   00000CDF  A$lab-5$3969                       lab_5
C:   00000CE1  A$lab-5$3972                       lab_5
C:   00000CE1  C$lab_5.c$464$2$198                lab_5
C:   00000CE4  A$lab-5$3973                       lab_5
C:   00000CE6  A$lab-5$3978                       lab_5
C:   00000CE6  C$lab_5.c$465$3$199                lab_5
C:   00000CE8  A$lab-5$3979                       lab_5
C:   00000CEB  A$lab-5$3980                       lab_5
C:   00000CED  A$lab-5$3981                       lab_5
C:   00000CEF  A$lab-5$3982                       lab_5
C:   00000CF2  A$lab-5$3985                       lab_5
C:   00000CF2  C$lab_5.c$466$3$199                lab_5
C:   00000CF4  A$lab-5$3986                       lab_5
C:   00000CF7  A$lab-5$3987                       lab_5
C:   00000CF9  A$lab-5$3990                       lab_5
C:   00000CF9  C$lab_5.c$467$3$199                lab_5
C:   00000CFC  A$lab-5$3993                       lab_5
C:   00000CFC  C$lab_5.c$468$4$200                lab_5
C:   00000CFF  A$lab-5$3996                       lab_5
C:   00000CFF  C$lab_5.c$469$4$200                lab_5
C:   00000D01  A$lab-5$3997                       lab_5
C:   00000D03  A$lab-5$3998                       lab_5
C:   00000D05  A$lab-5$3999                       lab_5
C:   00000D07  A$lab-5$4000                       lab_5
C:   00000D09  A$lab-5$4001                       lab_5
C:   00000D0B  A$lab-5$4002                       lab_5
C:   00000D0E  A$lab-5$4003                       lab_5
C:   00000D10  A$lab-5$4004                       lab_5
C:   00000D12  A$lab-5$4005                       lab_5
C:   00000D14  A$lab-5$4008                       lab_5
C:   00000D14  C$lab_5.c$470$4$200                lab_5
C:   00000D16  A$lab-5$4009                       lab_5
C:   00000D18  A$lab-5$4010                       lab_5
C:   00000D1A  A$lab-5$4011                       lab_5
C:   00000D1C  A$lab-5$4012                       lab_5
C:   00000D1E  A$lab-5$4013                       lab_5
C:   00000D20  A$lab-5$4014                       lab_5
C:   00000D23  A$lab-5$4015                       lab_5
C:   00000D25  A$lab-5$4016                       lab_5
C:   00000D27  A$lab-5$4017                       lab_5
C:   00000D29  A$lab-5$4020                       lab_5
C:   00000D29  C$lab_5.c$471$4$200                lab_5
C:   00000D2C  A$lab-5$4023                       lab_5
C:   00000D2C  C$lab_5.c$472$4$200                lab_5
C:   00000D2F  A$lab-5$4026                       lab_5
C:   00000D2F  C$lab_5.c$473$4$200                lab_5
C:   00000D32  A$lab-5$4030                       lab_5
ASxxxx Linker V03.00 + NoICE + sdld,  page 69.
Hexadecimal  [32-Bits]

Area                                    Addr        Size        Decimal Bytes (Attributes)
--------------------------------        ----        ----        ------- ----- ------------
CSEG                                000000FA    00001878 =        6264. bytes (REL,CON,CODE)

      Value  Global                              Global Defined In Module
      -----  --------------------------------   ------------------------
C:   00000D32  C$lab_5.c$475$3$199                lab_5
C:   00000D35  A$lab-5$4033                       lab_5
C:   00000D35  C$lab_5.c$476$4$201                lab_5
C:   00000D38  A$lab-5$4036                       lab_5
C:   00000D38  C$lab_5.c$477$4$201                lab_5
C:   00000D3A  A$lab-5$4037                       lab_5
C:   00000D3C  A$lab-5$4038                       lab_5
C:   00000D3E  A$lab-5$4039                       lab_5
C:   00000D40  A$lab-5$4040                       lab_5
C:   00000D42  A$lab-5$4041                       lab_5
C:   00000D44  A$lab-5$4042                       lab_5
C:   00000D47  A$lab-5$4043                       lab_5
C:   00000D49  A$lab-5$4044                       lab_5
C:   00000D4B  A$lab-5$4045                       lab_5
C:   00000D4D  A$lab-5$4048                       lab_5
C:   00000D4D  C$lab_5.c$478$4$201                lab_5
C:   00000D4F  A$lab-5$4049                       lab_5
C:   00000D51  A$lab-5$4050                       lab_5
C:   00000D53  A$lab-5$4051                       lab_5
C:   00000D55  A$lab-5$4052                       lab_5
C:   00000D57  A$lab-5$4053                       lab_5
C:   00000D59  A$lab-5$4054                       lab_5
C:   00000D5C  A$lab-5$4055                       lab_5
C:   00000D5E  A$lab-5$4056                       lab_5
C:   00000D60  A$lab-5$4057                       lab_5
C:   00000D62  A$lab-5$4060                       lab_5
C:   00000D62  C$lab_5.c$479$4$201                lab_5
C:   00000D65  A$lab-5$4063                       lab_5
C:   00000D65  C$lab_5.c$480$4$201                lab_5
C:   00000D68  A$lab-5$4066                       lab_5
C:   00000D68  C$lab_5.c$481$4$201                lab_5
C:   00000D6B  A$lab-5$4070                       lab_5
C:   00000D6B  C$lab_5.c$483$3$199                lab_5
C:   00000D6E  A$lab-5$4073                       lab_5
C:   00000D6E  C$lab_5.c$484$4$202                lab_5
C:   00000D71  A$lab-5$4076                       lab_5
C:   00000D71  C$lab_5.c$485$4$202                lab_5
C:   00000D73  A$lab-5$4077                       lab_5
C:   00000D75  A$lab-5$4078                       lab_5
C:   00000D77  A$lab-5$4079                       lab_5
C:   00000D79  A$lab-5$4080                       lab_5
C:   00000D7B  A$lab-5$4081                       lab_5
C:   00000D7D  A$lab-5$4082                       lab_5
C:   00000D80  A$lab-5$4083                       lab_5
C:   00000D82  A$lab-5$4084                       lab_5
C:   00000D84  A$lab-5$4085                       lab_5
C:   00000D86  A$lab-5$4088                       lab_5
C:   00000D86  C$lab_5.c$486$4$202                lab_5
C:   00000D88  A$lab-5$4089                       lab_5
C:   00000D8A  A$lab-5$4090                       lab_5
C:   00000D8C  A$lab-5$4091                       lab_5
ASxxxx Linker V03.00 + NoICE + sdld,  page 70.
Hexadecimal  [32-Bits]

Area                                    Addr        Size        Decimal Bytes (Attributes)
--------------------------------        ----        ----        ------- ----- ------------
CSEG                                000000FA    00001878 =        6264. bytes (REL,CON,CODE)

      Value  Global                              Global Defined In Module
      -----  --------------------------------   ------------------------
C:   00000D8E  A$lab-5$4092                       lab_5
C:   00000D90  A$lab-5$4093                       lab_5
C:   00000D92  A$lab-5$4094                       lab_5
C:   00000D95  A$lab-5$4095                       lab_5
C:   00000D97  A$lab-5$4096                       lab_5
C:   00000D99  A$lab-5$4097                       lab_5
C:   00000D9B  A$lab-5$4100                       lab_5
C:   00000D9B  C$lab_5.c$487$4$202                lab_5
C:   00000D9E  A$lab-5$4103                       lab_5
C:   00000D9E  C$lab_5.c$488$4$202                lab_5
C:   00000DA1  A$lab-5$4106                       lab_5
C:   00000DA1  C$lab_5.c$489$4$202                lab_5
C:   00000DA4  A$lab-5$4110                       lab_5
C:   00000DA4  C$lab_5.c$491$3$199                lab_5
C:   00000DA7  A$lab-5$4113                       lab_5
C:   00000DA7  C$lab_5.c$492$4$203                lab_5
C:   00000DAA  A$lab-5$4116                       lab_5
C:   00000DAA  C$lab_5.c$493$4$203                lab_5
C:   00000DAC  A$lab-5$4117                       lab_5
C:   00000DAE  A$lab-5$4118                       lab_5
C:   00000DB0  A$lab-5$4119                       lab_5
C:   00000DB2  A$lab-5$4120                       lab_5
C:   00000DB4  A$lab-5$4121                       lab_5
C:   00000DB6  A$lab-5$4122                       lab_5
C:   00000DB9  A$lab-5$4123                       lab_5
C:   00000DBB  A$lab-5$4124                       lab_5
C:   00000DBD  A$lab-5$4125                       lab_5
C:   00000DBF  A$lab-5$4128                       lab_5
C:   00000DBF  C$lab_5.c$494$4$203                lab_5
C:   00000DC1  A$lab-5$4129                       lab_5
C:   00000DC3  A$lab-5$4130                       lab_5
C:   00000DC5  A$lab-5$4131                       lab_5
C:   00000DC7  A$lab-5$4132                       lab_5
C:   00000DC9  A$lab-5$4133                       lab_5
C:   00000DCB  A$lab-5$4134                       lab_5
C:   00000DCE  A$lab-5$4135                       lab_5
C:   00000DD0  A$lab-5$4136                       lab_5
C:   00000DD2  A$lab-5$4137                       lab_5
C:   00000DD4  A$lab-5$4140                       lab_5
C:   00000DD4  C$lab_5.c$495$4$203                lab_5
C:   00000DD7  A$lab-5$4143                       lab_5
C:   00000DD7  C$lab_5.c$496$4$203                lab_5
C:   00000DDA  A$lab-5$4146                       lab_5
C:   00000DDA  C$lab_5.c$497$4$203                lab_5
C:   00000DDD  A$lab-5$4150                       lab_5
C:   00000DDD  C$lab_5.c$499$3$199                lab_5
C:   00000DE0  A$lab-5$4151                       lab_5
C:   00000DE2  A$lab-5$4153                       lab_5
C:   00000DE5  A$lab-5$4157                       lab_5
C:   00000DE5  C$lab_5.c$501$4$204                lab_5
C:   00000DE8  A$lab-5$4160                       lab_5
ASxxxx Linker V03.00 + NoICE + sdld,  page 71.
Hexadecimal  [32-Bits]

Area                                    Addr        Size        Decimal Bytes (Attributes)
--------------------------------        ----        ----        ------- ----- ------------
CSEG                                000000FA    00001878 =        6264. bytes (REL,CON,CODE)

      Value  Global                              Global Defined In Module
      -----  --------------------------------   ------------------------
C:   00000DE8  C$lab_5.c$502$4$204                lab_5
C:   00000DEA  A$lab-5$4161                       lab_5
C:   00000DEC  A$lab-5$4162                       lab_5
C:   00000DEE  A$lab-5$4163                       lab_5
C:   00000DF0  A$lab-5$4164                       lab_5
C:   00000DF2  A$lab-5$4165                       lab_5
C:   00000DF4  A$lab-5$4166                       lab_5
C:   00000DF7  A$lab-5$4167                       lab_5
C:   00000DF9  A$lab-5$4168                       lab_5
C:   00000DFB  A$lab-5$4169                       lab_5
C:   00000DFD  A$lab-5$4175                       lab_5
C:   00000DFD  C$lab_5.c$503$4$204                lab_5
C:   00000DFD  C$lab_5.c$504$5$205                lab_5
C:   00000E00  A$lab-5$4176                       lab_5
C:   00000E02  A$lab-5$4179                       lab_5
C:   00000E02  C$lab_5.c$505$5$205                lab_5
C:   00000E04  A$lab-5$4180                       lab_5
C:   00000E07  A$lab-5$4181                       lab_5
C:   00000E09  A$lab-5$4184                       lab_5
C:   00000E09  C$lab_5.c$506$5$205                lab_5
C:   00000E0C  A$lab-5$4185                       lab_5
C:   00000E0E  A$lab-5$4190                       lab_5
C:   00000E0E  C$lab_5.c$507$6$206                lab_5
C:   00000E10  A$lab-5$4191                       lab_5
C:   00000E13  A$lab-5$4192                       lab_5
C:   00000E15  A$lab-5$4193                       lab_5
C:   00000E17  A$lab-5$4194                       lab_5
C:   00000E1A  A$lab-5$4197                       lab_5
C:   00000E1A  C$lab_5.c$508$6$206                lab_5
C:   00000E1C  A$lab-5$4198                       lab_5
C:   00000E1F  A$lab-5$4199                       lab_5
C:   00000E21  A$lab-5$4202                       lab_5
C:   00000E21  C$lab_5.c$509$6$206                lab_5
C:   00000E22  A$lab-5$4203                       lab_5
C:   00000E24  A$lab-5$4204                       lab_5
C:   00000E27  A$lab-5$4205                       lab_5
C:   00000E28  A$lab-5$4208                       lab_5
C:   00000E28  C$lab_5.c$510$6$206                lab_5
C:   00000E29  A$lab-5$4209                       lab_5
C:   00000E2A  A$lab-5$4210                       lab_5
C:   00000E2C  A$lab-5$4211                       lab_5
C:   00000E2E  A$lab-5$4212                       lab_5
C:   00000E30  A$lab-5$4213                       lab_5
C:   00000E32  A$lab-5$4214                       lab_5
C:   00000E34  A$lab-5$4215                       lab_5
C:   00000E36  A$lab-5$4216                       lab_5
C:   00000E38  A$lab-5$4217                       lab_5
C:   00000E3A  A$lab-5$4218                       lab_5
C:   00000E3C  A$lab-5$4219                       lab_5
C:   00000E3E  A$lab-5$4220                       lab_5
C:   00000E41  A$lab-5$4221                       lab_5
ASxxxx Linker V03.00 + NoICE + sdld,  page 72.
Hexadecimal  [32-Bits]

Area                                    Addr        Size        Decimal Bytes (Attributes)
--------------------------------        ----        ----        ------- ----- ------------
CSEG                                000000FA    00001878 =        6264. bytes (REL,CON,CODE)

      Value  Global                              Global Defined In Module
      -----  --------------------------------   ------------------------
C:   00000E43  A$lab-5$4222                       lab_5
C:   00000E45  A$lab-5$4223                       lab_5
C:   00000E47  A$lab-5$4224                       lab_5
C:   00000E49  A$lab-5$4230                       lab_5
C:   00000E49  C$lab_5.c$514$4$204                lab_5
C:   00000E49  C$lab_5.c$515$5$207                lab_5
C:   00000E4B  A$lab-5$4231                       lab_5
C:   00000E4E  A$lab-5$4232                       lab_5
C:   00000E50  A$lab-5$4233                       lab_5
C:   00000E52  A$lab-5$4236                       lab_5
C:   00000E52  C$lab_5.c$516$5$207                lab_5
C:   00000E54  A$lab-5$4237                       lab_5
C:   00000E56  A$lab-5$4238                       lab_5
C:   00000E59  A$lab-5$4239                       lab_5
C:   00000E5B  A$lab-5$4240                       lab_5
C:   00000E5D  A$lab-5$4243                       lab_5
C:   00000E5D  C$lab_5.c$517$5$207                lab_5
C:   00000E60  A$lab-5$4244                       lab_5
C:   00000E62  A$lab-5$4249                       lab_5
C:   00000E62  C$lab_5.c$518$6$208                lab_5
C:   00000E64  A$lab-5$4250                       lab_5
C:   00000E66  A$lab-5$4251                       lab_5
C:   00000E69  A$lab-5$4252                       lab_5
C:   00000E6B  A$lab-5$4253                       lab_5
C:   00000E6D  A$lab-5$4254                       lab_5
C:   00000E6F  A$lab-5$4255                       lab_5
C:   00000E72  A$lab-5$4258                       lab_5
C:   00000E72  C$lab_5.c$519$6$208                lab_5
C:   00000E74  A$lab-5$4259                       lab_5
C:   00000E76  A$lab-5$4260                       lab_5
C:   00000E79  A$lab-5$4261                       lab_5
C:   00000E7B  A$lab-5$4262                       lab_5
C:   00000E7D  A$lab-5$4265                       lab_5
C:   00000E7D  C$lab_5.c$520$6$208                lab_5
C:   00000E7E  A$lab-5$4266                       lab_5
C:   00000E80  A$lab-5$4267                       lab_5
C:   00000E83  A$lab-5$4268                       lab_5
C:   00000E84  A$lab-5$4269                       lab_5
C:   00000E85  A$lab-5$4272                       lab_5
C:   00000E85  C$lab_5.c$521$6$208                lab_5
C:   00000E86  A$lab-5$4273                       lab_5
C:   00000E87  A$lab-5$4274                       lab_5
C:   00000E89  A$lab-5$4275                       lab_5
C:   00000E8B  A$lab-5$4276                       lab_5
C:   00000E8D  A$lab-5$4277                       lab_5
C:   00000E8F  A$lab-5$4278                       lab_5
C:   00000E91  A$lab-5$4279                       lab_5
C:   00000E93  A$lab-5$4280                       lab_5
C:   00000E95  A$lab-5$4281                       lab_5
C:   00000E97  A$lab-5$4282                       lab_5
C:   00000E99  A$lab-5$4283                       lab_5
ASxxxx Linker V03.00 + NoICE + sdld,  page 73.
Hexadecimal  [32-Bits]

Area                                    Addr        Size        Decimal Bytes (Attributes)
--------------------------------        ----        ----        ------- ----- ------------
CSEG                                000000FA    00001878 =        6264. bytes (REL,CON,CODE)

      Value  Global                              Global Defined In Module
      -----  --------------------------------   ------------------------
C:   00000E9B  A$lab-5$4284                       lab_5
C:   00000E9E  A$lab-5$4285                       lab_5
C:   00000EA0  A$lab-5$4286                       lab_5
C:   00000EA2  A$lab-5$4287                       lab_5
C:   00000EA4  A$lab-5$4288                       lab_5
C:   00000EA6  A$lab-5$4294                       lab_5
C:   00000EA6  C$lab_5.c$525$4$204                lab_5
C:   00000EA6  C$lab_5.c$526$5$209                lab_5
C:   00000EA8  A$lab-5$4295                       lab_5
C:   00000EAB  A$lab-5$4296                       lab_5
C:   00000EAD  A$lab-5$4297                       lab_5
C:   00000EAF  A$lab-5$4300                       lab_5
C:   00000EAF  C$lab_5.c$527$5$209                lab_5
C:   00000EB1  A$lab-5$4301                       lab_5
C:   00000EB3  A$lab-5$4302                       lab_5
C:   00000EB6  A$lab-5$4303                       lab_5
C:   00000EB8  A$lab-5$4304                       lab_5
C:   00000EBA  A$lab-5$4307                       lab_5
C:   00000EBA  C$lab_5.c$528$5$209                lab_5
C:   00000EBD  A$lab-5$4308                       lab_5
C:   00000EBF  A$lab-5$4313                       lab_5
C:   00000EBF  C$lab_5.c$529$6$210                lab_5
C:   00000EC1  A$lab-5$4314                       lab_5
C:   00000EC3  A$lab-5$4315                       lab_5
C:   00000EC6  A$lab-5$4316                       lab_5
C:   00000EC8  A$lab-5$4317                       lab_5
C:   00000ECA  A$lab-5$4318                       lab_5
C:   00000ECC  A$lab-5$4319                       lab_5
C:   00000ECF  A$lab-5$4322                       lab_5
C:   00000ECF  C$lab_5.c$530$6$210                lab_5
C:   00000ED1  A$lab-5$4323                       lab_5
C:   00000ED3  A$lab-5$4324                       lab_5
C:   00000ED6  A$lab-5$4325                       lab_5
C:   00000ED8  A$lab-5$4326                       lab_5
C:   00000EDA  A$lab-5$4329                       lab_5
C:   00000EDA  C$lab_5.c$531$6$210                lab_5
C:   00000EDB  A$lab-5$4330                       lab_5
C:   00000EDD  A$lab-5$4331                       lab_5
C:   00000EDE  A$lab-5$4334                       lab_5
C:   00000EDE  C$lab_5.c$532$6$210                lab_5
C:   00000EDF  A$lab-5$4335                       lab_5
C:   00000EE0  A$lab-5$4336                       lab_5
C:   00000EE2  A$lab-5$4337                       lab_5
C:   00000EE4  A$lab-5$4338                       lab_5
C:   00000EE6  A$lab-5$4339                       lab_5
C:   00000EE8  A$lab-5$4340                       lab_5
C:   00000EEA  A$lab-5$4341                       lab_5
C:   00000EEC  A$lab-5$4342                       lab_5
C:   00000EEE  A$lab-5$4343                       lab_5
C:   00000EF0  A$lab-5$4344                       lab_5
C:   00000EF2  A$lab-5$4345                       lab_5
ASxxxx Linker V03.00 + NoICE + sdld,  page 74.
Hexadecimal  [32-Bits]

Area                                    Addr        Size        Decimal Bytes (Attributes)
--------------------------------        ----        ----        ------- ----- ------------
CSEG                                000000FA    00001878 =        6264. bytes (REL,CON,CODE)

      Value  Global                              Global Defined In Module
      -----  --------------------------------   ------------------------
C:   00000EF4  A$lab-5$4346                       lab_5
C:   00000EF6  A$lab-5$4347                       lab_5
C:   00000EF8  A$lab-5$4348                       lab_5
C:   00000EFB  A$lab-5$4349                       lab_5
C:   00000EFD  A$lab-5$4350                       lab_5
C:   00000EFF  A$lab-5$4351                       lab_5
C:   00000F01  A$lab-5$4352                       lab_5
C:   00000F03  A$lab-5$4353                       lab_5
C:   00000F05  A$lab-5$4356                       lab_5
C:   00000F05  C$lab_5.c$536$4$204                lab_5
C:   00000F07  A$lab-5$4357                       lab_5
C:   00000F09  A$lab-5$4358                       lab_5
C:   00000F0B  A$lab-5$4359                       lab_5
C:   00000F0D  A$lab-5$4360                       lab_5
C:   00000F0F  A$lab-5$4361                       lab_5
C:   00000F11  A$lab-5$4362                       lab_5
C:   00000F13  A$lab-5$4363                       lab_5
C:   00000F15  A$lab-5$4364                       lab_5
C:   00000F18  A$lab-5$4365                       lab_5
C:   00000F1A  A$lab-5$4366                       lab_5
C:   00000F1C  A$lab-5$4367                       lab_5
C:   00000F1E  A$lab-5$4370                       lab_5
C:   00000F1E  C$lab_5.c$537$4$204                lab_5
C:   00000F21  A$lab-5$4371                       lab_5
C:   00000F23  A$lab-5$4374                       lab_5
C:   00000F23  C$lab_5.c$538$4$204                lab_5
C:   00000F25  A$lab-5$4380                       lab_5
C:   00000F25  C$lab_5.c$539$1$197                lab_5
C:   00000F25  C$lab_5.c$543$1$197                lab_5
C:   00000F28  A$lab-5$4383                       lab_5
C:   00000F28  C$lab_5.c$544$1$197                lab_5
C:   00000F2A  A$lab-5$4384                       lab_5
C:   00000F2C  A$lab-5$4385                       lab_5
C:   00000F2E  A$lab-5$4386                       lab_5
C:   00000F30  A$lab-5$4387                       lab_5
C:   00000F32  A$lab-5$4388                       lab_5
C:   00000F34  A$lab-5$4389                       lab_5
C:   00000F37  A$lab-5$4390                       lab_5
C:   00000F39  A$lab-5$4391                       lab_5
C:   00000F3B  A$lab-5$4392                       lab_5
C:   00000F3D  A$lab-5$4398                       lab_5
C:   00000F3D  C$lab_5.c$545$1$197                lab_5
C:   00000F3D  C$lab_5.c$546$2$211                lab_5
C:   00000F40  A$lab-5$4399                       lab_5
C:   00000F42  A$lab-5$4402                       lab_5
C:   00000F42  C$lab_5.c$547$2$211                lab_5
C:   00000F44  A$lab-5$4403                       lab_5
C:   00000F47  A$lab-5$4404                       lab_5
C:   00000F49  A$lab-5$4407                       lab_5
C:   00000F49  C$lab_5.c$550$2$211                lab_5
C:   00000F4C  A$lab-5$4408                       lab_5
ASxxxx Linker V03.00 + NoICE + sdld,  page 75.
Hexadecimal  [32-Bits]

Area                                    Addr        Size        Decimal Bytes (Attributes)
--------------------------------        ----        ----        ------- ----- ------------
CSEG                                000000FA    00001878 =        6264. bytes (REL,CON,CODE)

      Value  Global                              Global Defined In Module
      -----  --------------------------------   ------------------------
C:   00000F4E  A$lab-5$4413                       lab_5
C:   00000F4E  C$lab_5.c$551$3$212                lab_5
C:   00000F50  A$lab-5$4414                       lab_5
C:   00000F53  A$lab-5$4415                       lab_5
C:   00000F55  A$lab-5$4416                       lab_5
C:   00000F57  A$lab-5$4417                       lab_5
C:   00000F5A  A$lab-5$4420                       lab_5
C:   00000F5A  C$lab_5.c$552$3$212                lab_5
C:   00000F5C  A$lab-5$4421                       lab_5
C:   00000F5F  A$lab-5$4422                       lab_5
C:   00000F61  A$lab-5$4425                       lab_5
C:   00000F61  C$lab_5.c$553$3$212                lab_5
C:   00000F64  A$lab-5$4428                       lab_5
C:   00000F64  C$lab_5.c$554$4$213                lab_5
C:   00000F67  A$lab-5$4431                       lab_5
C:   00000F67  C$lab_5.c$555$4$213                lab_5
C:   00000F69  A$lab-5$4432                       lab_5
C:   00000F6B  A$lab-5$4433                       lab_5
C:   00000F6D  A$lab-5$4434                       lab_5
C:   00000F6F  A$lab-5$4435                       lab_5
C:   00000F71  A$lab-5$4436                       lab_5
C:   00000F73  A$lab-5$4437                       lab_5
C:   00000F76  A$lab-5$4438                       lab_5
C:   00000F78  A$lab-5$4439                       lab_5
C:   00000F7A  A$lab-5$4440                       lab_5
C:   00000F7C  A$lab-5$4443                       lab_5
C:   00000F7C  C$lab_5.c$556$4$213                lab_5
C:   00000F7E  A$lab-5$4444                       lab_5
C:   00000F80  A$lab-5$4445                       lab_5
C:   00000F82  A$lab-5$4446                       lab_5
C:   00000F84  A$lab-5$4447                       lab_5
C:   00000F86  A$lab-5$4448                       lab_5
C:   00000F88  A$lab-5$4449                       lab_5
C:   00000F8B  A$lab-5$4450                       lab_5
C:   00000F8D  A$lab-5$4451                       lab_5
C:   00000F8F  A$lab-5$4452                       lab_5
C:   00000F91  A$lab-5$4455                       lab_5
C:   00000F91  C$lab_5.c$557$4$213                lab_5
C:   00000F94  A$lab-5$4458                       lab_5
C:   00000F94  C$lab_5.c$558$4$213                lab_5
C:   00000F97  A$lab-5$4461                       lab_5
C:   00000F97  C$lab_5.c$559$4$213                lab_5
C:   00000F9A  A$lab-5$4465                       lab_5
C:   00000F9A  C$lab_5.c$561$3$212                lab_5
C:   00000F9D  A$lab-5$4468                       lab_5
C:   00000F9D  C$lab_5.c$562$4$214                lab_5
C:   00000FA0  A$lab-5$4471                       lab_5
C:   00000FA0  C$lab_5.c$563$4$214                lab_5
C:   00000FA2  A$lab-5$4472                       lab_5
C:   00000FA4  A$lab-5$4473                       lab_5
C:   00000FA6  A$lab-5$4474                       lab_5
ASxxxx Linker V03.00 + NoICE + sdld,  page 76.
Hexadecimal  [32-Bits]

Area                                    Addr        Size        Decimal Bytes (Attributes)
--------------------------------        ----        ----        ------- ----- ------------
CSEG                                000000FA    00001878 =        6264. bytes (REL,CON,CODE)

      Value  Global                              Global Defined In Module
      -----  --------------------------------   ------------------------
C:   00000FA8  A$lab-5$4475                       lab_5
C:   00000FAA  A$lab-5$4476                       lab_5
C:   00000FAC  A$lab-5$4477                       lab_5
C:   00000FAF  A$lab-5$4478                       lab_5
C:   00000FB1  A$lab-5$4479                       lab_5
C:   00000FB3  A$lab-5$4480                       lab_5
C:   00000FB5  A$lab-5$4483                       lab_5
C:   00000FB5  C$lab_5.c$564$4$214                lab_5
C:   00000FB7  A$lab-5$4484                       lab_5
C:   00000FB9  A$lab-5$4485                       lab_5
C:   00000FBB  A$lab-5$4486                       lab_5
C:   00000FBD  A$lab-5$4487                       lab_5
C:   00000FBF  A$lab-5$4488                       lab_5
C:   00000FC1  A$lab-5$4489                       lab_5
C:   00000FC4  A$lab-5$4490                       lab_5
C:   00000FC6  A$lab-5$4491                       lab_5
C:   00000FC8  A$lab-5$4492                       lab_5
C:   00000FCA  A$lab-5$4495                       lab_5
C:   00000FCA  C$lab_5.c$565$4$214                lab_5
C:   00000FCD  A$lab-5$4498                       lab_5
C:   00000FCD  C$lab_5.c$566$4$214                lab_5
C:   00000FD0  A$lab-5$4501                       lab_5
C:   00000FD0  C$lab_5.c$567$4$214                lab_5
C:   00000FD3  A$lab-5$4505                       lab_5
C:   00000FD3  C$lab_5.c$569$3$212                lab_5
C:   00000FD6  A$lab-5$4508                       lab_5
C:   00000FD6  C$lab_5.c$570$4$215                lab_5
C:   00000FD9  A$lab-5$4511                       lab_5
C:   00000FD9  C$lab_5.c$571$4$215                lab_5
C:   00000FDB  A$lab-5$4512                       lab_5
C:   00000FDD  A$lab-5$4513                       lab_5
C:   00000FDF  A$lab-5$4514                       lab_5
C:   00000FE1  A$lab-5$4515                       lab_5
C:   00000FE3  A$lab-5$4516                       lab_5
C:   00000FE5  A$lab-5$4517                       lab_5
C:   00000FE8  A$lab-5$4518                       lab_5
C:   00000FEA  A$lab-5$4519                       lab_5
C:   00000FEC  A$lab-5$4520                       lab_5
C:   00000FEE  A$lab-5$4523                       lab_5
C:   00000FEE  C$lab_5.c$572$4$215                lab_5
C:   00000FF0  A$lab-5$4524                       lab_5
C:   00000FF2  A$lab-5$4525                       lab_5
C:   00000FF4  A$lab-5$4526                       lab_5
C:   00000FF6  A$lab-5$4527                       lab_5
C:   00000FF8  A$lab-5$4528                       lab_5
C:   00000FFA  A$lab-5$4529                       lab_5
C:   00000FFD  A$lab-5$4530                       lab_5
C:   00000FFF  A$lab-5$4531                       lab_5
C:   00001001  A$lab-5$4532                       lab_5
C:   00001003  A$lab-5$4535                       lab_5
C:   00001003  C$lab_5.c$573$4$215                lab_5
ASxxxx Linker V03.00 + NoICE + sdld,  page 77.
Hexadecimal  [32-Bits]

Area                                    Addr        Size        Decimal Bytes (Attributes)
--------------------------------        ----        ----        ------- ----- ------------
CSEG                                000000FA    00001878 =        6264. bytes (REL,CON,CODE)

      Value  Global                              Global Defined In Module
      -----  --------------------------------   ------------------------
C:   00001006  A$lab-5$4538                       lab_5
C:   00001006  C$lab_5.c$574$4$215                lab_5
C:   00001009  A$lab-5$4541                       lab_5
C:   00001009  C$lab_5.c$575$4$215                lab_5
C:   0000100C  A$lab-5$4545                       lab_5
C:   0000100C  C$lab_5.c$577$3$212                lab_5
C:   0000100F  A$lab-5$4548                       lab_5
C:   0000100F  C$lab_5.c$578$4$216                lab_5
C:   00001012  A$lab-5$4551                       lab_5
C:   00001012  C$lab_5.c$579$4$216                lab_5
C:   00001014  A$lab-5$4552                       lab_5
C:   00001016  A$lab-5$4553                       lab_5
C:   00001018  A$lab-5$4554                       lab_5
C:   0000101A  A$lab-5$4555                       lab_5
C:   0000101C  A$lab-5$4556                       lab_5
C:   0000101E  A$lab-5$4557                       lab_5
C:   00001021  A$lab-5$4558                       lab_5
C:   00001023  A$lab-5$4559                       lab_5
C:   00001025  A$lab-5$4560                       lab_5
C:   00001027  A$lab-5$4563                       lab_5
C:   00001027  C$lab_5.c$580$4$216                lab_5
C:   00001029  A$lab-5$4564                       lab_5
C:   0000102B  A$lab-5$4565                       lab_5
C:   0000102D  A$lab-5$4566                       lab_5
C:   0000102F  A$lab-5$4567                       lab_5
C:   00001031  A$lab-5$4568                       lab_5
C:   00001033  A$lab-5$4569                       lab_5
C:   00001036  A$lab-5$4570                       lab_5
C:   00001038  A$lab-5$4571                       lab_5
C:   0000103A  A$lab-5$4572                       lab_5
C:   0000103C  A$lab-5$4575                       lab_5
C:   0000103C  C$lab_5.c$581$4$216                lab_5
C:   0000103F  A$lab-5$4578                       lab_5
C:   0000103F  C$lab_5.c$582$4$216                lab_5
C:   00001042  A$lab-5$4581                       lab_5
C:   00001042  C$lab_5.c$583$4$216                lab_5
C:   00001045  A$lab-5$4585                       lab_5
C:   00001045  C$lab_5.c$585$3$212                lab_5
C:   00001048  A$lab-5$4586                       lab_5
C:   0000104A  A$lab-5$4588                       lab_5
C:   0000104D  A$lab-5$4592                       lab_5
C:   0000104D  C$lab_5.c$587$4$217                lab_5
C:   00001050  A$lab-5$4595                       lab_5
C:   00001050  C$lab_5.c$588$4$217                lab_5
C:   00001052  A$lab-5$4596                       lab_5
C:   00001054  A$lab-5$4597                       lab_5
C:   00001056  A$lab-5$4598                       lab_5
C:   00001058  A$lab-5$4599                       lab_5
C:   0000105A  A$lab-5$4600                       lab_5
C:   0000105C  A$lab-5$4601                       lab_5
C:   0000105F  A$lab-5$4602                       lab_5
ASxxxx Linker V03.00 + NoICE + sdld,  page 78.
Hexadecimal  [32-Bits]

Area                                    Addr        Size        Decimal Bytes (Attributes)
--------------------------------        ----        ----        ------- ----- ------------
CSEG                                000000FA    00001878 =        6264. bytes (REL,CON,CODE)

      Value  Global                              Global Defined In Module
      -----  --------------------------------   ------------------------
C:   00001061  A$lab-5$4603                       lab_5
C:   00001063  A$lab-5$4604                       lab_5
C:   00001065  A$lab-5$4610                       lab_5
C:   00001065  C$lab_5.c$589$4$217                lab_5
C:   00001065  C$lab_5.c$590$5$218                lab_5
C:   00001068  A$lab-5$4611                       lab_5
C:   0000106A  A$lab-5$4614                       lab_5
C:   0000106A  C$lab_5.c$591$5$218                lab_5
C:   0000106C  A$lab-5$4615                       lab_5
C:   0000106F  A$lab-5$4616                       lab_5
C:   00001071  A$lab-5$4619                       lab_5
C:   00001071  C$lab_5.c$592$5$218                lab_5
C:   00001074  A$lab-5$4620                       lab_5
C:   00001076  A$lab-5$4625                       lab_5
C:   00001076  C$lab_5.c$593$6$219                lab_5
C:   00001078  A$lab-5$4626                       lab_5
C:   0000107B  A$lab-5$4627                       lab_5
C:   0000107D  A$lab-5$4628                       lab_5
C:   0000107F  A$lab-5$4629                       lab_5
C:   00001082  A$lab-5$4632                       lab_5
C:   00001082  C$lab_5.c$594$6$219                lab_5
C:   00001084  A$lab-5$4633                       lab_5
C:   00001087  A$lab-5$4634                       lab_5
C:   00001089  A$lab-5$4637                       lab_5
C:   00001089  C$lab_5.c$595$6$219                lab_5
C:   0000108A  A$lab-5$4638                       lab_5
C:   0000108C  A$lab-5$4639                       lab_5
C:   0000108F  A$lab-5$4640                       lab_5
C:   00001090  A$lab-5$4643                       lab_5
C:   00001090  C$lab_5.c$596$6$219                lab_5
C:   00001091  A$lab-5$4644                       lab_5
C:   00001092  A$lab-5$4645                       lab_5
C:   00001094  A$lab-5$4646                       lab_5
C:   00001096  A$lab-5$4647                       lab_5
C:   00001098  A$lab-5$4648                       lab_5
C:   0000109A  A$lab-5$4649                       lab_5
C:   0000109C  A$lab-5$4650                       lab_5
C:   0000109E  A$lab-5$4651                       lab_5
C:   000010A0  A$lab-5$4652                       lab_5
C:   000010A2  A$lab-5$4653                       lab_5
C:   000010A4  A$lab-5$4654                       lab_5
C:   000010A6  A$lab-5$4655                       lab_5
C:   000010A9  A$lab-5$4656                       lab_5
C:   000010AB  A$lab-5$4657                       lab_5
C:   000010AD  A$lab-5$4658                       lab_5
C:   000010AF  A$lab-5$4659                       lab_5
C:   000010B1  A$lab-5$4665                       lab_5
C:   000010B1  C$lab_5.c$600$4$217                lab_5
C:   000010B1  C$lab_5.c$601$5$220                lab_5
C:   000010B3  A$lab-5$4666                       lab_5
C:   000010B6  A$lab-5$4667                       lab_5
ASxxxx Linker V03.00 + NoICE + sdld,  page 79.
Hexadecimal  [32-Bits]

Area                                    Addr        Size        Decimal Bytes (Attributes)
--------------------------------        ----        ----        ------- ----- ------------
CSEG                                000000FA    00001878 =        6264. bytes (REL,CON,CODE)

      Value  Global                              Global Defined In Module
      -----  --------------------------------   ------------------------
C:   000010B8  A$lab-5$4668                       lab_5
C:   000010BA  A$lab-5$4671                       lab_5
C:   000010BA  C$lab_5.c$602$5$220                lab_5
C:   000010BC  A$lab-5$4672                       lab_5
C:   000010BE  A$lab-5$4673                       lab_5
C:   000010C1  A$lab-5$4674                       lab_5
C:   000010C3  A$lab-5$4675                       lab_5
C:   000010C5  A$lab-5$4678                       lab_5
C:   000010C5  C$lab_5.c$603$5$220                lab_5
C:   000010C8  A$lab-5$4679                       lab_5
C:   000010CA  A$lab-5$4684                       lab_5
C:   000010CA  C$lab_5.c$604$6$221                lab_5
C:   000010CC  A$lab-5$4685                       lab_5
C:   000010CE  A$lab-5$4686                       lab_5
C:   000010D1  A$lab-5$4687                       lab_5
C:   000010D3  A$lab-5$4688                       lab_5
C:   000010D5  A$lab-5$4689                       lab_5
C:   000010D7  A$lab-5$4690                       lab_5
C:   000010DA  A$lab-5$4693                       lab_5
C:   000010DA  C$lab_5.c$605$6$221                lab_5
C:   000010DC  A$lab-5$4694                       lab_5
C:   000010DE  A$lab-5$4695                       lab_5
C:   000010E1  A$lab-5$4696                       lab_5
C:   000010E3  A$lab-5$4697                       lab_5
C:   000010E5  A$lab-5$4700                       lab_5
C:   000010E5  C$lab_5.c$606$6$221                lab_5
C:   000010E6  A$lab-5$4701                       lab_5
C:   000010E8  A$lab-5$4702                       lab_5
C:   000010EB  A$lab-5$4703                       lab_5
C:   000010EC  A$lab-5$4704                       lab_5
C:   000010ED  A$lab-5$4707                       lab_5
C:   000010ED  C$lab_5.c$607$6$221                lab_5
C:   000010EE  A$lab-5$4708                       lab_5
C:   000010EF  A$lab-5$4709                       lab_5
C:   000010F1  A$lab-5$4710                       lab_5
C:   000010F3  A$lab-5$4711                       lab_5
C:   000010F5  A$lab-5$4712                       lab_5
C:   000010F7  A$lab-5$4713                       lab_5
C:   000010F9  A$lab-5$4714                       lab_5
C:   000010FB  A$lab-5$4715                       lab_5
C:   000010FD  A$lab-5$4716                       lab_5
C:   000010FF  A$lab-5$4717                       lab_5
C:   00001101  A$lab-5$4718                       lab_5
C:   00001103  A$lab-5$4719                       lab_5
C:   00001106  A$lab-5$4720                       lab_5
C:   00001108  A$lab-5$4721                       lab_5
C:   0000110A  A$lab-5$4722                       lab_5
C:   0000110C  A$lab-5$4723                       lab_5
C:   0000110E  A$lab-5$4729                       lab_5
C:   0000110E  C$lab_5.c$611$4$217                lab_5
C:   0000110E  C$lab_5.c$612$5$222                lab_5
ASxxxx Linker V03.00 + NoICE + sdld,  page 80.
Hexadecimal  [32-Bits]

Area                                    Addr        Size        Decimal Bytes (Attributes)
--------------------------------        ----        ----        ------- ----- ------------
CSEG                                000000FA    00001878 =        6264. bytes (REL,CON,CODE)

      Value  Global                              Global Defined In Module
      -----  --------------------------------   ------------------------
C:   00001110  A$lab-5$4730                       lab_5
C:   00001113  A$lab-5$4731                       lab_5
C:   00001115  A$lab-5$4732                       lab_5
C:   00001117  A$lab-5$4735                       lab_5
C:   00001117  C$lab_5.c$613$5$222                lab_5
C:   00001119  A$lab-5$4736                       lab_5
C:   0000111B  A$lab-5$4737                       lab_5
C:   0000111E  A$lab-5$4738                       lab_5
C:   00001120  A$lab-5$4739                       lab_5
C:   00001122  A$lab-5$4742                       lab_5
C:   00001122  C$lab_5.c$614$5$222                lab_5
C:   00001125  A$lab-5$4743                       lab_5
C:   00001127  A$lab-5$4748                       lab_5
C:   00001127  C$lab_5.c$615$6$223                lab_5
C:   00001129  A$lab-5$4749                       lab_5
C:   0000112B  A$lab-5$4750                       lab_5
C:   0000112E  A$lab-5$4751                       lab_5
C:   00001130  A$lab-5$4752                       lab_5
C:   00001132  A$lab-5$4753                       lab_5
C:   00001134  A$lab-5$4754                       lab_5
C:   00001137  A$lab-5$4757                       lab_5
C:   00001137  C$lab_5.c$616$6$223                lab_5
C:   00001139  A$lab-5$4758                       lab_5
C:   0000113B  A$lab-5$4759                       lab_5
C:   0000113E  A$lab-5$4760                       lab_5
C:   00001140  A$lab-5$4761                       lab_5
C:   00001142  A$lab-5$4764                       lab_5
C:   00001142  C$lab_5.c$617$6$223                lab_5
C:   00001143  A$lab-5$4765                       lab_5
C:   00001145  A$lab-5$4766                       lab_5
C:   00001146  A$lab-5$4769                       lab_5
C:   00001146  C$lab_5.c$618$6$223                lab_5
C:   00001147  A$lab-5$4770                       lab_5
C:   00001148  A$lab-5$4771                       lab_5
C:   0000114A  A$lab-5$4772                       lab_5
C:   0000114C  A$lab-5$4773                       lab_5
C:   0000114E  A$lab-5$4774                       lab_5
C:   00001150  A$lab-5$4775                       lab_5
C:   00001152  A$lab-5$4776                       lab_5
C:   00001154  A$lab-5$4777                       lab_5
C:   00001156  A$lab-5$4778                       lab_5
C:   00001158  A$lab-5$4779                       lab_5
C:   0000115A  A$lab-5$4780                       lab_5
C:   0000115C  A$lab-5$4781                       lab_5
C:   0000115E  A$lab-5$4782                       lab_5
C:   00001160  A$lab-5$4783                       lab_5
C:   00001163  A$lab-5$4784                       lab_5
C:   00001165  A$lab-5$4785                       lab_5
C:   00001167  A$lab-5$4786                       lab_5
C:   00001169  A$lab-5$4787                       lab_5
C:   0000116B  A$lab-5$4788                       lab_5
ASxxxx Linker V03.00 + NoICE + sdld,  page 81.
Hexadecimal  [32-Bits]

Area                                    Addr        Size        Decimal Bytes (Attributes)
--------------------------------        ----        ----        ------- ----- ------------
CSEG                                000000FA    00001878 =        6264. bytes (REL,CON,CODE)

      Value  Global                              Global Defined In Module
      -----  --------------------------------   ------------------------
C:   0000116D  A$lab-5$4789                       lab_5
C:   0000116F  A$lab-5$4792                       lab_5
C:   0000116F  C$lab_5.c$622$4$217                lab_5
C:   00001171  A$lab-5$4793                       lab_5
C:   00001173  A$lab-5$4794                       lab_5
C:   00001175  A$lab-5$4795                       lab_5
C:   00001177  A$lab-5$4796                       lab_5
C:   00001179  A$lab-5$4797                       lab_5
C:   0000117B  A$lab-5$4798                       lab_5
C:   0000117D  A$lab-5$4799                       lab_5
C:   0000117F  A$lab-5$4800                       lab_5
C:   00001181  A$lab-5$4801                       lab_5
C:   00001184  A$lab-5$4802                       lab_5
C:   00001186  A$lab-5$4803                       lab_5
C:   00001188  A$lab-5$4804                       lab_5
C:   0000118A  A$lab-5$4807                       lab_5
C:   0000118A  C$lab_5.c$623$4$217                lab_5
C:   0000118D  A$lab-5$4808                       lab_5
C:   0000118F  A$lab-5$4811                       lab_5
C:   0000118F  C$lab_5.c$624$4$217                lab_5
C:   00001191  A$lab-5$4817                       lab_5
C:   00001191  C$lab_5.c$625$1$197                lab_5
C:   00001191  C$lab_5.c$629$1$197                lab_5
C:   00001191  XG$set_gains$0$0                   lab_5
C:   00001192  __gptrput                          _gptrput
C:   000011AD  _abs                               abs
C:   000011BA  __mulint                           _mulint
C:   000011BA  __mulint_dummy                     _mulint
C:   00001247  _vsprintf                          sprintf
C:   00001284  _sprintf                           sprintf
C:   000012D2  __divuint                          _divuint
C:   00001306  _vprintf                           vprintf
C:   0000131F  _printf                            vprintf
C:   000013F6  __print_format                     printf_large
C:   00001902  _strlen                            _strlen
C:   0000191A  __gptrget                          _gptrget
C:   00001936  __divsint                          _divsint
C:   0000196E  __sdcc_external_startup            _startup

ASxxxx Linker V03.00 + NoICE + sdld,  page 82.
Hexadecimal  [32-Bits]

Area                                    Addr        Size        Decimal Bytes (Attributes)
--------------------------------        ----        ----        ------- ----- ------------
CONST                               00001972    00000233 =         563. bytes (REL,CON,CODE)

      Value  Global                              Global Defined In Module
      -----  --------------------------------   ------------------------
C:   00001972  Flab_5$__str_0$0$0                 lab_5
C:   00001988  Flab_5$__str_1$0$0                 lab_5
C:   00001998  Flab_5$__str_2$0$0                 lab_5
C:   0000199B  Flab_5$__str_3$0$0                 lab_5
C:   000019C9  Flab_5$__str_4$0$0                 lab_5
C:   000019D5  Flab_5$__str_5$0$0                 lab_5
C:   000019E4  Flab_5$__str_6$0$0                 lab_5
C:   000019F5  Flab_5$__str_7$0$0                 lab_5
C:   000019FB  Flab_5$__str_8$0$0                 lab_5
C:   00001A00  Flab_5$__str_9$0$0                 lab_5
C:   00001A23  Flab_5$__str_10$0$0                lab_5
C:   00001A31  Flab_5$__str_11$0$0                lab_5
C:   00001A68  Flab_5$__str_12$0$0                lab_5
C:   00001A70  Flab_5$__str_13$0$0                lab_5
C:   00001A80  Flab_5$__str_14$0$0                lab_5
C:   00001A88  Flab_5$__str_15$0$0                lab_5
C:   00001A98  Flab_5$__str_16$0$0                lab_5
C:   00001AA0  Flab_5$__str_17$0$0                lab_5
C:   00001AB0  Flab_5$__str_18$0$0                lab_5
C:   00001AB8  Flab_5$__str_19$0$0                lab_5
C:   00001AC8  Flab_5$__str_20$0$0                lab_5
C:   00001B00  Flab_5$__str_21$0$0                lab_5
C:   00001B03  Flab_5$__str_22$0$0                lab_5
C:   00001B14  Flab_5$__str_23$0$0                lab_5
C:   00001B50  Flab_5$__str_24$0$0                lab_5
C:   00001B58  Flab_5$__str_25$0$0                lab_5
C:   00001B68  Flab_5$__str_26$0$0                lab_5
C:   00001B70  Flab_5$__str_27$0$0                lab_5
C:   00001B80  Flab_5$__str_28$0$0                lab_5
C:   00001B89  Flab_5$__str_29$0$0                lab_5
ASxxxx Linker V03.00 + NoICE + sdld,  page 83.

Files Linked                              [ module(s) ]

C:\Users\gerlig\Documents\School\LITEC\LAB5\lab-5.rel
                                          [  ]


Libraries Linked                          [ object file ]

C:\Program Files\SDCC\bin\..\lib\small/mcs51.lib
                                          [ crtclear.rel ]
C:\Program Files\SDCC\bin\..\lib\small/mcs51.lib
                                          [ crtxinit.rel ]
C:\Program Files\SDCC\bin\..\lib\small/libsdcc.lib
                                          [ _gptrput.rel ]
C:\Program Files\SDCC\bin\..\lib\small/libsdcc.lib
                                          [ abs.rel ]
C:\Program Files\SDCC\bin\..\lib\small/libint.lib
                                          [ _mulint.rel ]
C:\Program Files\SDCC\bin\..\lib\small/libsdcc.lib
                                          [ sprintf.rel ]
C:\Program Files\SDCC\bin\..\lib\small/mcs51.lib
                                          [ crtxclear.rel ]
C:\Program Files\SDCC\bin\..\lib\small/libint.lib
                                          [ _divuint.rel ]
C:\Program Files\SDCC\bin\..\lib\small/libsdcc.lib
                                          [ _bp.rel ]
C:\Program Files\SDCC\bin\..\lib\small/libsdcc.lib
                                          [ vprintf.rel ]
C:\Program Files\SDCC\bin\..\lib\small/libsdcc.lib
                                          [ printf_large.rel ]
C:\Program Files\SDCC\bin\..\lib\small/libsdcc.lib
                                          [ _strlen.rel ]
C:\Program Files\SDCC\bin\..\lib\small/mcs51.lib
                                          [ crtstart.rel ]
C:\Program Files\SDCC\bin\..\lib\small/libsdcc.lib
                                          [ _gptrget.rel ]
C:\Program Files\SDCC\bin\..\lib\small/libint.lib
                                          [ _divsint.rel ]
C:\Program Files\SDCC\bin\..\lib\small/libsdcc.lib
                                          [ _startup.rel ]

ASxxxx Linker V03.00 + NoICE + sdld,  page 84.

User Base Address Definitions

HOME = 0x0000
XSEG = 0x0001
PSEG = 0x0001
ISEG = 0x0000
BSEG = 0x0000

